(dp0
S'Y'
p1
ccvxopt.base
matrix
p2
((lp3
F-3.3259124319899862
aF2.8225398072811516
aF-0.085583482542882061
aF3.1530933114417081
aF-1.3247761851520539
aF2.2606345410061248
aF4.1832161373082064
aF5.7543596834452719
aF0.75502644379389472
aF4.3218889499026991
aF1.5867204004149711
aF3.6376335205696551
aF-3.7537950975207721
aF0.92428488418482946
aF-4.1800929390295156
aF0.91630289899980921
aF4.2629206573744911
aF3.5807156730501672
aF2.573748910847383
aF4.4138777646398388
aF0.13453652761961798
aF6.2684549569682044
aF3.4378865234397504
aF7.3140696878676845
aF-1.7591406875563949
aF3.12875120530243
aF2.6282388968157653
aF8.3076743912936379
aF1.1486751015240078
aF6.4355777960311435
aF3.0470243371220431
aF2.7060007913042123
aF-0.5171185991922278
aF6.3246590293256251
aF-3.1507825952040975
aF2.4337415612517659
aF2.3579117888673511
aF3.7067675889497793
aF-1.4175554889396924
aF-0.40849422934491386
aF-1.7717823012505192
aF2.6872451500321142
aF0.931122926878857
aF5.1885004522252878
aF-1.6371106533789872
aF0.64004041011870338
aF1.2351587354330928
aF6.5189109009536264
aF0.39904790672760693
aF1.98855295706613
aF-0.92488907487814354
aF2.4589906199856588
aF-1.9759356663570427
aF2.4422815951389691
aF-1.6901883178447037
aF2.9238391663761094
aF1.6863365498640297
aF4.3498854200260988
aF-0.054069207143000675
aF4.7696578032384611
aF-3.763470227580636
aF-0.41566113012203587
aF-4.6912529063267048
aF-1.6078012334153884
aF-3.6342230231157275
aF1.2930152609673407
aF-3.3015329081859432
aF-1.817701136997784
aF-6.0700828799319808
aF-1.6205068273178593
aF-6.0922564178915257
aF-0.87265141093362164
aF-3.046827042693721
aF1.235109483262729
aF-4.6075121063136342
aF-2.3866354834632082
aF-3.2776708818532097
aF0.044761524054909962
aF-1.3836061813809617
aF2.2811212122200692
aF0.89365751897667056
aF2.1812349207644646
aF-1.9504864207015848
aF3.3866795568055132
aF2.5555324747844974
aF4.629692916135788
aF-6.9008879666136647
aF-4.0252986202193295
aF-3.7027690950618588
aF-0.26702581794135005
aF-4.9641892055436436
aF-3.1956203424905927
aF-5.4535810893929106
aF-1.7786517352517941
aF-5.7927828700513126
aF-0.66709383907920383
aF-4.9928597973428914
aF-2.104980529891062
aF-2.6695985995034452
aF-0.30423711825838984
a(I2
I50
tp4
S'd'
p5
tp6
Rp7
sS'X'
p8
g2
((lp9
F-2.2988730425412962
aF-6.8886127538282613
aF0.11206447589345725
aF-3.3240576614930459
aF-0.74372051739217349
aF-2.1470371556379169
aF-1.0829466884697956
aF-5.2923651188100989
aF0.12976840441848125
aF-4.2049779282934852
aF-4.0222415940723328
aF-5.044396125337884
aF3.4598318341371579
aF-0.92970676505898897
aF1.3952691136349913
aF-2.559228827847134
aF1.8011678836395115
aF-1.7619157225981017
aF-0.98362919545773275
aF-3.6273804334157735
aF-2.3656826672527456
aF-4.5278749522154893
aF-5.7199620621032308
aF-3.749201369226534
aF1.572658516501757
aF-2.1537197033803914
aF0.23314811759215015
aF-4.7095822287706097
aF4.4922671955365825
aF2.7367666036134843
aF-1.1776750048123226
aF-3.3663465468972991
aF-2.3038884777014044
aF-6.5438609147713596
aF0.52318914850250631
aF-0.56843868120988461
aF-2.6652661202159162
aF-4.560160151307489
aF0.025142514973025221
aF-1.2938685960527376
aF-5.5306699466330507
aF-2.9482496744854205
aF-0.24365598231452346
aF-6.433884777987851
aF-1.2587526414888468
aF-5.8634676835104891
aF2.9082964700370413
aF-2.04119192292415
aF1.3692304592723086
aF-5.0646827172416486
aF0.38444927208825685
aF-3.8547764797604556
aF-1.5000663120577835
aF-4.3107025534659931
aF4.3069464239149244
aF1.6142135661793393
aF1.0320292288276742
aF-1.6989736371650852
aF-3.5977156960777501
aF-4.6287278188825374
aF7.8452137354493381
aF4.3299787523984534
aF3.9147900464905931
aF0.27707044522956314
aF2.5487116241206644
aF-1.1377492790435122
aF0.83364231666949484
aF-0.82955309110512321
aF2.5364592833901565
aF-0.56945672762463717
aF-0.46843548774939214
aF-0.42212397750498121
aF3.1121398420558943
aF0.11136088696540258
aF5.9088501740048818
aF2.5339351757838608
aF7.920056421946466
aF3.5443936333542574
aF7.5875426443774714
aF0.67263456075981409
aF2.8803338222063486
aF-1.0726633535600105
aF2.3493280656232298
aF1.8713377957720971
aF6.3375235850156715
aF2.4011775105257085
aF0.72189465458660751
aF-1.1792894527679461
aF5.64036424092766
aF3.5213766242958182
aF8.738328157638346
aF3.1098075267940533
aF2.5791206203432999
aF0.52790175355367319
aF3.611168317023135
aF-0.21097517368754937
aF6.1573596252569232
aF2.4297655543463108
aF2.5780511922520906
aF-2.0378512504695636
a(I2
I50
tp10
g5
tp11
Rp12
s.