ccvxopt.base
spmatrix
p0
(ccvxopt.base
matrix
p1
((lp2
F996.97909104636949
aF-23.899785763250076
aF26.492011082544277
aF6.3509700389619157
aF27.477696307918759
aF-20.10640486870755
aF-14.851814216051114
aF-39.697185237027547
aF947.38157898332565
aF-4.2503539341531873
aF-28.731726153288296
aF25.951573115917355
aF912.79246253755866
aF-13.786277258261793
aF-3.3396074735661352
aF22.900426085981067
aF978.76440922035999
aF29.399302044217663
aF29.493675458377876
aF-9.8056680822397801
aF38.431393241910094
aF6.6172107423274227
aF7.0193511209072703
aF922.22675939152157
aF-8.8777874529557934
aF4.9296560159837606
aF-30.101427193113
aF-42.311444619096605
aF-32.096792771239414
aF18.08157424957227
aF12.193794230496929
aF-28.008728552794793
aF-23.317097036200213
aF913.96913055908465
aF-24.845831724585306
aF10.001968526688348
aF-15.928081845683554
aF32.134996939691057
aF953.23023703606907
aF-31.408813001264047
aF-21.955758549991032
aF-2.6022523785110319
aF-24.409891669365642
aF-46.51328294593565
aF-44.116017388700271
aF1047.0946975616821
aF-57.51406393738516
aF22.728277462104138
aF7.9737432521521878
aF-33.082296788521418
aF949.77361988281746
aF8.4350733450998465
aF32.682251604762506
aF-29.480929352123582
aF15.844238681521945
aF19.775029611324165
aF-5.0947662446639193
aF-0.010269200096147485
aF25.839862079998419
aF-0.53768144547513474
aF13.728102825219038
aF936.80804613048372
aF-9.2282887491194838
aF930.34719524342438
aF4.5440998141051496
aF-9.6553236811682304
aF14.957827712488848
aF-17.772161782765689
aF60.971088332972244
aF-7.2789998145743278
aF1.4970964152603377
aF1018.8447349499803
aF10.983621609183592
aF49.840242715255179
aF-14.10310178560856
aF-30.919625902218471
aF-5.7599582459395755
aF19.647643056574967
aF1134.6711873207071
aF-29.786221437844866
aF46.925579827039364
aF0.26189711511288483
aF19.875802071318404
aF1079.0353644586974
aF23.864347083036272
aF-25.868571048536605
aF1026.8823934566585
aF-7.2148710028710292
aF-2.6049232502276154
aF-0.48592393316242866
aF28.012666242657978
aF1.1148049429081099
aF-29.37521222391932
aF-14.572743019440765
aF20.13160412481874
aF-9.2583971209111322
aF-33.345663083499836
aF34.695361038279906
aF888.60799648751174
aF-4.4075247942034945
aF2.5932154444147235
aF1080.670303921205
aF-16.282864156980011
aF31.309379807682205
aF-21.954211030193544
aF-2.8603119891005853
aF18.247977543227993
aF991.71279680172734
aF-4.8485196053621094
aF-5.0414818836610902
aF-34.90572009172373
aF975.70285310346287
aF-27.599258403475741
aF-19.554081005222098
aF-8.4018748398906382
aF23.194823652370179
aF933.75953922039957
aF-6.2430607181068556
aF-5.9586117210145542
aF-43.032268527051862
aF-1.3812138155781659
aF32.113618418246595
aF1018.2708462985455
aF-8.5235052900855326
aF-35.664545920199821
aF6.9328650233786639
aF31.856762014760918
aF-40.504040625099428
aF938.17126479725312
aF-5.7229700303609707
aF22.891261221872782
aF-11.645128742304806
aF12.999683036644514
aF-19.628499827095307
aF986.78052223527141
aF-23.573385777900366
aF7.4680279152300253
aF5.1275578653598348
aF-1.042737735489033
aF-4.2674437851554483
aF7.3323248320460674
aF25.626888311650887
aF22.80125702608931
aF-7.0929101723473753
aF1006.3374409062694
aF-33.532331109901136
aF33.655649116864673
aF20.598909487118235
aF6.4286632720213177
aF-12.60913185908931
aF1090.9574377004108
aF-33.926302763271558
aF21.256562156107488
aF3.7370158811410956
aF1053.3609691435686
aF30.744153525385499
aF29.109422450014989
aF21.014174788884503
aF1007.0584482857449
aF-1.5984603405285771
aF-14.656323249191676
aF-14.431719681436043
aF-18.271260473117763
aF-24.38795987203671
aF-56.856177163127157
aF1052.7732207215265
aF16.404203703933042
aF25.114131414464595
aF43.133027375829762
aF-14.703733280794587
aF12.381973661705503
aF-8.9376590885897382
aF-16.582927679703612
aF901.18993301223213
aF-7.5820865223780309
aF-22.465964144743388
aF961.23344219977866
aF4.3139958368775391
aF4.719391490830203
aF14.133862869025142
aF-7.0983741979460708
aF1087.2808790903955
aF-14.135427208865305
aF1054.4748258881555
aF13.737369734368269
aF-15.347220908753725
aF-6.4321258683569837
aF36.216082201781745
aF-26.965083293110879
aF960.10855261010522
aF-21.914454026182778
aF-21.827743043101556
aF1008.5701804044542
aF-25.993860159652677
aF85.778194350390905
aF-6.6487449866476691
aF-7.0668184483549874
aF46.461350622533871
aF17.297997152422933
aF22.805276284461865
aF1032.0095447438723
aF-28.641108711765913
aF5.9399886197386076
aF22.255065673589328
aF-3.5282149200877768
aF26.949329521067011
aF1041.6709435362741
aF-5.8457038568418431
aF-19.394448816940876
aF-9.2550734558361949
aF-31.611246970898662
aF-25.985863560140764
aF-0.57462882128036252
aF18.864377008466146
aF1013.3491173265605
aF-66.863711615746723
aF949.11778431555842
aF19.063907832744778
aF7.3797451308862891
aF-49.391427131873691
aF1041.6901639915379
aF23.119632520877254
aF-26.314137094746943
aF-14.435128309283789
aF1103.8106946503312
aF8.0832360649960648
aF14.197651570310311
aF-27.496153186411568
aF39.459897343147475
aF22.124776203268652
aF-23.53779700269606
aF990.02001217446423
aF8.0394128461011025
aF-4.580004486298054
aF-11.701232366733938
aF-15.517650888909165
aF11.260868174999487
aF1125.5105685637313
aF4.2307417866318442
aF-18.811122017069376
aF-49.166763753463947
aF-26.514217249254244
aF1013.0784977065847
aF23.740469837673491
aF-6.9238624602975936
aF-18.843063615748449
aF-11.123058027239367
aF13.709049567101383
aF4.8061662338869713
aF911.39063888213821
aF30.639006236842935
aF-0.021747565629815252
aF17.198727471641135
aF921.03696800405214
aF8.9522118988766852
aF24.559371916829303
aF12.932954764470599
aF-17.862368579528425
aF3.2581867346836741
aF24.263041799814406
aF0.34139103729579945
aF-1.520341874100088
aF-54.577702864673071
aF959.12473603431908
aF33.549573383678258
aF26.330997861825583
aF1020.9158970042796
aF38.420919342586295
aF-30.575114960947744
aF-38.522949644282029
aF-6.4801590504904771
aF45.165711036976923
aF-32.513122824771081
aF981.28052425351871
aF15.793285693426757
aF21.574299701890954
aF-30.343103155018674
aF28.371611701865337
aF-7.0184647466242422
aF849.66955580056037
aF-23.979181842500758
aF2.2871064797447076
aF-9.1828674356218212
aF3.2444600514822808
aF0.88520801809984306
aF-8.0220996082277569
aF-9.8464906550347102
aF1.0072931682897124
aF1113.6735624030134
aF10.804331377034174
aF-22.097135878587959
aF9.0655932227405636
aF1076.1844627846301
aF-31.100256263310126
aF-0.78639288985198375
aF53.059431630329676
aF19.477550749954521
aF-0.3826662495765199
aF9.6945653910461882
aF9.8505431522987958
aF971.94270834392728
aF-4.0344149756277154
aF-4.9201586782246132
aF6.7313325590936808
aF-14.495111443520264
aF1014.0009690725504
aF-6.619427100713871
aF-1.8259780647314727
aF31.650817134456236
aF977.30778603252725
aF11.959060583725442
aF13.668415163062924
aF-14.272952682797696
aF0.82816229449399392
aF892.67161757111035
aF-15.388540215810602
aF-19.852898468643751
aF-37.932623711393028
aF7.3614409924374371
aF-23.143487814306138
aF-20.806535758751799
aF925.26375242625215
aF13.344536737030985
aF4.2522225932815099
aF26.885612171187148
aF1077.2879274467157
aF52.15050215627641
aF-30.226756669657068
aF-6.4380544094973979
aF-28.982072345780633
aF-48.120758203276559
aF-30.281662458765187
aF999.84673918724889
aF-23.518683701514437
aF-9.2419948216726358
aF-27.438359166235458
aF936.47768527933579
aF-20.582899958385791
aF-23.537182437014597
aF988.23103074703317
aF-28.998617923082069
aF-12.078155195404895
aF19.25665241106865
aF-4.1099889849555238
aF-14.936505807695358
aF-39.598183889818408
aF972.94890387750684
aF-24.196169328949043
aF5.7677076851447193
aF1012.5648842676636
aF12.957654862031266
aF-15.472932456386102
aF13.842590808859299
aF26.678461221430695
aF9.6047202281871211
aF-14.16174880616726
aF19.040103169315316
aF30.591039143354898
aF-11.361246706625865
aF11.864708678940017
aF8.0503791145424515
aF32.596981761299347
aF900.79255703062927
aF-15.354325213770883
aF-26.270810710786609
aF-3.8707954077725923
aF-22.438403031173699
aF-18.011636544558115
aF-6.6582438290461647
aF1094.8219953058203
aF7.398624298056065
aF-44.582754735006624
aF4.2281391277265081
aF1134.6529637723695
aF39.24556319852524
aF-2.977945087145295
aF17.008299420676956
aF7.8496400060045977
aF-31.201097633100112
aF-6.1170257923647799
aF-2.3387994558943466
aF13.132685477001628
aF6.3718428136022842
aF39.049743685277633
aF969.37520985338426
aF10.546857547725025
aF-0.57545883560222955
aF0.86008774637314589
aF0.30067153225729298
aF-4.4472034653756438
aF975.41455974105622
aF-38.195275733532654
aF-12.02436581887414
aF23.58432513783886
aF-5.3242633833109938
aF-20.825119054173413
aF918.75128197974425
aF-29.722700733593467
aF8.6243893591408174
aF929.95202309010733
aF-11.295440035213476
aF-1.1179207192235838
aF-10.354913806751139
aF-6.6253088069908292
aF973.38113123859966
aF-38.267940654994547
aF16.750357165266838
aF-9.8139331127157341
aF950.45077464160636
aF26.441691642553554
aF2.2956260079994126
aF14.512140450419707
aF-27.171992256251436
aF1062.4893287119701
aF-1.217693535488708
aF9.7779485751468496
aF7.3963156251352249
aF48.050547699593373
aF-29.845428287043386
aF2.5228808932107616
aF976.82200012005626
aF-38.67074388666515
aF18.763585988988229
aF985.16522410123071
aF-6.3203686815117974
aF19.920540122599444
aF9.211874436274794
aF-25.488973067721716
aF-1.5394340988510185
aF-19.736036540870781
aF-29.482083648037243
aF-31.600174660431303
aF997.47509814723696
aF44.767248594881814
aF21.380693018896356
aF915.72994752936518
aF29.524207112551998
aF-7.1189585506651047
aF10.129794131677576
aF-13.755517278622316
aF36.546611617912895
aF1082.9853923512619
aF-14.639195139804945
aF91.215090903308365
aF10.802159371636852
aF45.870551534479745
aF3.4166552312576117
aF-28.897224258101772
aF47.088508956929481
aF929.00054452676727
aF23.791661469381662
aF-2.868962217178268
aF-42.75056506451557
aF965.20234904468873
aF15.616555773420478
aF996.77078853869205
aF8.985429539837785
aF-44.283100598935007
aF15.271861194244881
aF38.926856224741563
aF-2.8823526596194515
aF1062.5887993753693
aF-36.035798686900542
aF45.851311182426933
aF20.94683708207695
aF29.854527434845895
aF968.61499685452327
aF-4.6751894657062341
aF-17.515650154579198
aF3.8148691793079674
aF949.74187830913331
aF43.516266277561122
aF-3.7364772531718558
aF58.879958188684917
aF990.52088554920647
aF49.44521495647534
aF0.85799963670139845
aF-13.781671082551123
aF29.834743853696214
aF988.21958032416353
aF11.894845749015804
aF-26.84587645106037
aF1038.5621852545107
aF-22.387152764567098
aF21.923875285433486
aF35.005604407147011
aF1007.9812225895364
aF9.0973077722126057
aF24.093345355166914
aF-0.67057040703503723
aF39.611893715767785
aF-14.46663769098736
aF-0.20062715808099191
aF-4.2744627422786481
aF1005.5851962727806
aF1.8504674828965959
aF-41.25983683691846
aF-13.710216406501571
aF-16.303794457336465
aF-54.03312808273779
aF1004.8065453788909
aF6.9983168162326583
aF-40.057710409860363
aF42.779489697955128
aF1.7332844880624727
aF1038.0797697191394
aF-33.168165561438087
aF-6.9327933949906893
aF1.430662134835005
aF1094.8945947785323
aF-37.243987292832131
aF-11.197691834606399
aF27.381174573947252
aF-28.252922210902209
aF18.737618837615397
aF-5.7831802021351457
aF16.964448208683656
aF16.275657558233878
aF-18.719750404254576
aF1068.4179631910599
aF-9.8198917335797642
aF36.710032425130073
aF1031.2836526872818
aF24.264059442944379
aF-11.727968212515853
aF-18.151293655059753
aF-24.976172833095269
aF8.3667909344237614
aF-4.4027812298738107
aF1054.3948452057666
aF-50.233686556757249
aF4.6638860661300994
aF19.98484850322081
aF11.212676332857964
aF-7.2815878645996515
aF10.565828529712272
aF987.13682955214369
aF2.4302981844950278
aF936.96450077602799
aF-27.114012164333719
aF-2.8138847985580897
aF-9.1287015698329466
aF57.29093169564895
aF-29.53431342140323
aF-33.278679663689758
aF939.29199645795825
aF-12.419627542773917
aF887.07987341233002
aF29.756103704007913
aF2.4618525611882416
aF957.25992971071935
aF-20.489353133724816
aF11.515863543184533
aF-0.80449734677080986
aF-2.7284743869198489
aF22.229240705888756
aF17.90116513975228
aF21.72211693735008
aF959.94709648027799
aF34.995273758518863
aF27.134387200012014
aF-13.540189765604676
aF1008.3249906000322
aF-27.527424161063873
aF35.384114149189564
aF29.830611110003879
aF1140.27562979709
aF4.5363497360224887
aF937.30782908739877
aF-21.019776840796247
aF23.718961413043186
aF1081.3801927663999
aF-10.874492381232081
aF-16.78244226343773
aF3.9580343961792464
aF1017.2558843909964
aF-5.2974886623784085
aF19.717334827021709
aF12.725210028812757
aF10.573580776229626
aF7.0077864958226712
aF981.26394725566024
aF2.3980900683046502
aF-11.083431325927501
aF994.49342592893572
aF-25.482713356790338
aF1055.5519883462389
aF15.692942677531224
aF-1.0735847177568509
aF9.5716744111900738
aF38.044645125443772
aF1014.2620152503325
aF5.272922152362578
aF-31.121812465026423
aF11.475405850078996
aF6.4940372367327832
aF1034.8872819188484
aF-6.2508460631289662
aF0.26188270833388227
aF26.519785811843121
aF43.57089398457493
aF1004.116273921304
aF28.704065287909565
aF30.427557981129272
aF-11.326465061106145
aF14.069455348079217
aF933.60658849461709
aF15.676874577427034
aF3.4084531694784346
aF18.173465882323715
aF45.013906240699093
aF4.5319108153049346
aF11.885075058291193
aF992.64788528761187
aF14.18959996401418
aF3.7769693527975239
aF-25.980421919719532
aF10.938509729705492
aF994.513735429446
aF6.1197875649908644
aF919.76287575430251
aF18.742518559670419
aF6.5867800823202103
aF6.4771363562967323
aF-62.45016616494982
aF1110.7757959588073
aF7.725509489390177
aF-17.893776294187496
aF-11.069031616989474
aF-12.00684811208982
aF1049.0632719788891
aF-47.582662848842126
aF-20.238606857455949
aF14.129689818693368
aF1049.3586290282979
aF39.554447989074859
aF-13.516310850214932
aF921.11145940005633
aF6.8214590647956586
aF34.078692056032722
aF-18.90239181389882
aF6.5658112888807789
aF-18.53692030669146
aF988.12241478553949
aF-18.044846992594707
aF16.370358177846555
aF5.6769283570573323
aF4.0252910266531039
aF-20.071459215447749
aF1092.6347297868579
aF-23.334143249427662
aF2.1597939530351002
aF-27.987812677839283
aF942.5282200812286
aF13.857525561174864
aF-23.994012273363303
aF882.17315406181706
aF24.583870087304529
aF1.026884690639823
aF17.834431109537359
aF1032.9956875586195
aF39.018910399607357
aF-28.497374264658632
aF31.22736612426257
aF-12.171225572720768
aF10.164992053560601
aF1076.6470432120457
aF-5.2672822581787608
aF1057.1455550686983
aF13.179716530232717
aF-5.3428894527137469
aF7.2874129869206765
aF22.842223576470332
aF-14.710067883564854
aF42.289407851641968
aF975.84247946784501
aF-14.023467851648695
aF24.229909789557059
aF11.047698002925632
aF-8.398349859307098
aF-47.737302476602771
aF-12.222399410493942
aF29.924836183159623
aF-27.569583619433335
aF12.770587324899454
aF1011.0679190716759
aF1032.3413399546473
aF1.0387597682992924
aF-0.91377003635400444
aF11.457770746909334
aF928.27273798487136
aF-3.8668667143785065
aF-26.800143894417431
aF980.56202340494872
aF-3.9512316927659463
aF-3.1617150619105154
aF998.88354816553306
aF38.517681536164325
aF2.9203953964333933
aF9.5761883172002502
aF-16.175462931073753
aF-4.3248265065054357
aF1116.3448423596058
aF11.774687341176623
aF5.3199036328884404
aF-9.9795719318183238
aF7.8566636930425036
aF30.3367700810978
aF954.44449445688542
aF8.0265790854975343
aF30.754542408670797
aF-28.164624762465621
aF1000.0628032213147
aF-27.494312468544834
aF-2.6021471753383776
aF8.7581693881982901
aF22.431023844326432
aF962.1463604946772
aF-23.551611772685607
aF7.3746320850423022
aF1013.3465262998698
aF12.493368987203331
aF36.509309951825344
aF-23.711073590863279
aF52.730079549213912
aF46.100384322751111
aF-4.9065936527229486
aF962.36936009293674
aF20.215352623151198
aF29.848570313773834
aF5.4755866112082101
aF3.8220384611879292
aF1006.0068763722406
aF-20.367203213511527
aF-0.42045513517412436
aF993.82372076550655
aF-8.6880764634740562
aF44.203842622387775
aF-14.241290998893584
aF-26.225894835652635
aF-10.269201095552537
aF19.633669806612005
aF1043.8579294866754
aF15.007029627523357
aF17.186354706126608
aF25.659546891593109
aF31.860361951425794
aF992.07992771387035
aF-13.027965586523621
aF-3.7261819344015157
aF-2.8846061326574799
aF1014.4091678600224
aF13.760142036001628
aF9.1624223284910133
aF-10.337483218210073
aF1032.7995635309576
aF-28.817042577007591
aF6.226865529298812
aF-21.9417763910762
aF-24.24139759003009
aF53.842854869350795
aF8.1280170174491602
aF978.52914499772362
aF8.3241149896082334
aF-7.4669602996361393
aF997.04558743852147
aF-2.4859489080113
aF-21.847666936301977
aF-0.52144893192605135
aF949.8994980544112
aF-16.909903785338692
aF18.539701926532178
aF944.41326783890531
aF8.1659096876066677
aF16.310477734763122
aF1113.8988696385118
aF-33.958016089052528
aF35.272948568283248
aF-13.534255517263681
aF0.70271285423549901
aF1002.7457241696035
aF-16.480026534436487
aF-19.229461976581153
aF25.828947433523179
aF907.83851651473435
aF-6.5226624352274056
aF966.31430559772741
aF-31.261644297897224
aF-15.763682697269594
aF7.4337743999308259
aF1054.7064765026309
aF28.073531561104041
aF8.2529009925065235
aF-24.401260507710667
aF990.31828208353966
aF-16.941317689731754
aF1002.9542840643745
aF-0.20877765764089851
aF-28.685492670197856
aF28.051702686275132
aF10.279726273699406
aF-21.097934707750436
aF1112.6168482264152
aF17.92809104975856
aF16.895332074163214
aF998.83210342895165
aF33.72095713353616
aF-16.419105890554142
aF-2.0926743729112021
aF-9.9857304056984031
aF1010.3628621834437
aF0.23621362811159408
aF-8.4231733795926189
aF8.7295690899221849
aF25.892471008496319
aF-23.431441779738066
aF24.833173156257082
aF1020.6533198616248
aF26.164357763872164
aF958.78939823174119
aF-7.6422366645427982
aF-13.11394145360636
aF-2.6753300179342001
aF25.247458461348916
aF1039.2055829452127
aF-7.2872759774750611
aF7.0528882516125604
aF3.7080961723917261
aF973.79589640868289
aF-16.86881908205179
aF10.659872977309448
aF4.430660601918734
aF1037.1729140350162
aF29.89355938656152
aF-50.189857566834895
aF-5.9636923789074094
aF17.826068259796294
aF953.92372527061502
aF-2.0454784830086687
aF6.4625250006392605
aF989.64607184204749
aF-9.182833176252025
aF17.644501542694162
aF20.222933139883466
aF11.696837507359968
aF-6.0295871163723538
aF903.51849980515908
aF-0.8349072738825507
aF13.081763637251349
aF5.5823785824615308
aF2.7279389271868797
aF-4.2057616210887945
aF965.10829682890244
aF-14.716828140390311
aF-3.4227041275294057
aF19.081184392250034
aF31.602308063382814
aF-7.5721483503993117
aF954.06001071077765
aF17.958634708939744
aF-7.9726690157125155
aF4.264877245808858
aF-10.351933782805398
aF-22.447819727267706
aF-6.3797954849566114
aF8.5297158949405976
aF1109.990294416541
aF-42.898936696936097
aF3.0954216394606271
aF-11.300425546825728
aF919.10549497839702
aF33.591358147857235
aF935.56184410429842
aF2.4792243365005695
aF47.290613566030274
aF-24.723451850020865
aF18.189449295176459
aF-9.354433646338757
aF1009.176919166517
aF26.265855914888188
aF12.241139956354482
aF1007.5162553425275
aF-35.083016459819333
aF2.8223796343765208
aF24.30865232386504
aF940.49192387351047
aF26.765120022454042
aF-29.991980589880797
aF-6.5726652531282781
aF-35.138197763678562
aF898.02294601185963
aF-11.80030385171745
aF6.3959385613508735
aF5.2095056251171412
aF-11.267639136207618
aF8.9834269096049191
aF-15.601450911359493
aF12.002934352490424
aF1061.9088314574196
aF1021.5286307963414
aF974.27096227826451
aF29.231106974629462
aF-12.372457679181895
aF16.839782914040239
aF-10.784906960159148
aF1110.9133558869853
aF-5.2464051847499347
aF30.421024568712987
aF929.45612487422636
aF0.15988306104624417
aF-23.588118640476875
aF-16.733021339712685
aF1.2551095486065418
aF978.84550675877881
aF2.0201676799620762
aF-6.2871676715210647
aF13.741736823981698
aF-11.700604477132963
aF912.73065437846151
aF-34.706466001545323
aF30.381298303545133
aF1009.3731061378852
aF1008.3238318628544
aF-5.188124346961434
aF0.9410066436597293
aF13.664028186614686
aF31.955663189822026
aF36.298825292433868
aF35.176273581571088
aF-2.8977416727142895
aF963.93010211866283
aF-29.79958993383384
aF994.77502674420896
aF15.935386715699183
aF923.05426690660636
aF10.813258829419137
aF-5.0352645809704404
aF-33.739262545004195
aF9.2116967596217449
aF946.32432870467312
aF-8.5126420806973595
aF1081.0704440762224
aF-37.94791662819712
aF37.652164163556137
aF12.207073541807159
aF921.1930928641782
aF9.6812477407748254
aF-14.504560064472656
aF-4.4435393555856164
aF1079.7871664885888
aF-4.2068315640642764
aF-8.6579170353384622
aF987.87888532003547
aF-18.620256480458224
aF22.673599291714876
aF0.7976252139129526
aF19.045514512488833
aF-6.7236942771881969
aF1020.8978670132979
aF-15.665420619434165
aF945.76290267502304
aF1.5002038650554304
aF-12.140751228062987
aF-8.1605631695879008
aF36.38551674207541
aF954.2048524912725
aF18.096363537958595
aF6.0562064745208684
aF1068.2886355623439
aF3.7385075441161346
aF1043.5461446148433
aF27.167655521117048
aF-1.7205580132454539
aF1021.3718384285742
aF1.4106247755596306
aF-13.751870029269391
aF994.82426288387512
aF-12.597355438002541
aF-1.8773847569154434
aF-7.5209177992746694
aF-1.6775361606032031
aF3.5860267753881669
aF993.30830163951464
aF1023.7684322108034
aF7.3827281845142592
aF-6.2365289844226357
aF-19.581305627993292
aF21.894835215302475
aF982.303314742054
aF42.020832311455976
aF-14.223923349187423
aF15.473580458743308
aF0.89564973651898327
aF1012.4385069146476
aF-7.2487238491036035
aF1026.5110056674478
aF62.970107595120894
aF-32.575454655734426
aF-5.7355057597276309
aF13.588454572583924
aF7.8487505645684745
aF982.13309030362689
aF63.488587900901173
aF-37.193347878489483
aF979.96862484579469
aF990.17460576284623
aF6.3290285485479219
aF-31.241455279740322
aF14.860911033605705
aF1124.0924276728445
aF18.350218398281889
aF-28.656127294058741
aF968.25647178214444
aF49.613549770982445
aF-3.3406091757118856
aF1064.8492682682361
aF-5.8492167950322704
aF0.29639565205010271
aF-35.755746541632156
aF935.43814194014988
aF-30.387506374733036
aF5.6872214491917221
aF991.88747302311162
aF12.259443441354779
aF0.181752200689414
aF16.774813957070222
aF-71.796419982668723
aF41.56387470064346
aF-16.257927337035415
aF986.15091307304851
aF1115.3974609551856
aF1051.793615857719
aF25.486172028493307
aF-1.6049595921194972
aF1059.8939545017458
aF22.26305700865467
aF-0.73933252451773435
aF33.678645064785698
aF12.144505068647897
aF1014.2947204119002
aF-14.265739115479134
aF19.337207481655788
aF-8.6131796268442606
aF940.39212528740211
aF-29.596684220709747
aF1122.0343586091929
aF-14.356302062808773
aF21.163932957048655
aF1038.3909029991755
aF39.044908091569226
aF-11.630458257577232
aF-17.138505408734574
aF1040.082081491717
aF986.20675504822998
aF1073.0478251789652
aF-25.571873318266967
aF-25.733135530201718
aF1.1874720864945678
aF-20.316559061832148
aF-1.0994577450697369
aF-1.5295198320725041
aF1035.9342679890772
aF35.422212819916567
aF3.7260719482504827
aF22.090112190960102
aF29.924784730321939
aF1042.7415438674823
aF1117.4125977172403
aF27.991226802966825
aF53.299664091488509
aF-16.868980357007661
aF5.6904830265721369
aF25.065404373823458
aF-19.684108774384359
aF1038.6668477350022
aF27.74060789188448
aF11.729918308461404
aF1008.0403256317013
aF-7.198024472953171
aF11.550463076420227
aF904.53619512376258
aF31.259542543394222
aF19.522792433471572
aF-1.7081953140500363
aF26.361472695929937
aF42.169357609930557
aF36.954953151121451
aF1004.3887145255586
aF-3.0567176590418392
aF-28.932663385700138
aF2.8463172759176762
aF-41.480817393903472
aF-0.68495314097315418
aF21.208653848364019
aF19.876255515102429
aF998.12874980374295
aF1.3961086816912429
aF23.821668920901342
aF21.441174552653806
aF-44.665288201485076
aF12.633140606795406
aF988.38432905112916
aF18.71811669630037
aF24.913145241742193
aF4.8273734459764572
aF-21.359128252832029
aF1065.3762097654769
aF24.918183253589213
aF-27.897058417766164
aF12.561904979061016
aF1089.7539174243775
aF14.699878990740451
aF5.0699757690162865
aF-55.839834801834542
aF984.98626773133446
aF892.9497079083751
aF-22.650241838469928
aF-12.441283303937622
aF881.06274521697583
aF-9.399730594999296
aF31.227087359930721
aF2.4612959698168853
aF1053.8605901273861
aF-6.0066185359336677
aF11.865775216869102
aF40.152389574564538
aF869.1604587083126
aF959.64234290126842
aF44.706151674854247
aF3.4962543700800031
aF986.8188443638802
aF-10.502807678052365
aF-6.1711187034702828
aF-20.63589248183213
aF7.8996595892496178
aF1036.4526079439877
aF-37.585419309157089
aF1.8542119127221615
aF11.17639906818914
aF-13.310845893051535
aF49.80080106133682
aF22.217313576784736
aF-5.1966403433892667
aF1029.3305958673775
aF26.108870350830433
aF-2.2237912026804105
aF22.044642806617869
aF996.90680772704093
aF-0.61622767913287646
aF-14.016484663587772
aF954.02738078624384
aF28.518877124687648
aF-0.52675077970567385
aF989.09821783581117
aF-9.6785742503752914
aF-15.566186467510502
aF-4.1923485158047118
aF0.47988670677906098
aF20.338575090204959
aF995.46484752607512
aF3.2491500593837461
aF-14.090077037761237
aF890.6364469937937
aF20.468092222026829
aF26.222243827677108
aF952.93565485434056
aF-14.247537927605798
aF12.031538779218243
aF1075.0278864196378
aF-9.0683180187256625
aF-1.3173814606159042
aF20.351359463761465
aF-5.7249534947634393
aF20.95643328024418
aF1078.3569908140601
aF29.153198423325712
aF44.631955652940036
aF17.672876412345737
aF7.9498981094329411
aF-37.993369063165886
aF973.76818102942673
aF24.093330458313645
aF-21.383690393991195
aF942.32575201335362
aF43.917484208170215
aF1041.4431633288777
aF17.528531982715048
aF1097.1674463245085
aF6.1199204015642081
aF-39.180665949999771
aF38.463774914761672
aF-9.2703971202383144
aF985.15913015727836
aF2.9683966801746893
aF5.2893991353821059
aF-2.5889710667866952
aF31.124961594345585
aF930.66965419763653
aF-9.7478464098365709
aF17.546913210897511
aF880.63523601875465
aF-1.3146259309146979
aF12.689126566426291
aF994.38622297713937
aF-7.8134192093558745
aF-9.3952889452393329
aF26.651688979252885
aF13.453806672476007
aF928.41139317250713
aF-31.988649613129311
aF991.57609530813193
aF2.5393815526079515
aF-16.972908002764807
aF1.4846009214004348
aF-26.042299178951076
aF945.54557673218176
aF19.488128200930728
aF-1.849008087892962
aF5.51190192752148
aF-11.515577789711328
aF-9.5639555992494927
aF1094.9177538581603
aF8.1024844191992873
aF-25.855057493164132
aF-3.229587151702018
aF-1.0377722247306955
aF1033.8433841240162
aF2.890273219319742
aF-39.000392988349212
aF58.316975034515771
aF1027.122258371923
aF17.752403838655663
aF9.8199946666143685
aF1053.4288870389064
aF-5.40502329884493
aF21.007796646011563
aF2.150905627670832
aF969.2460169792904
aF56.045494254328204
aF1037.746950512076
aF0.24332250043871628
aF8.4542032980737787
aF-15.852582989449385
aF-31.093548106104357
aF845.25214591528243
aF18.822705535329607
aF1037.6688377619087
aF14.099455252562741
aF-11.92605334630179
aF-10.56113567926128
aF874.50805199618765
aF1.196678136954834
aF0.70470221711887693
aF-0.20806098944469181
aF1095.2559846523645
aF860.78536001686632
aF-12.797069836169143
aF-6.2274215684928294
aF985.36032569452755
aF1018.5176809725897
aF14.258103397746838
aF1142.8546968002693
aF24.576361342147866
aF1027.9333668285065
aF23.37255889290406
aF36.716482522820854
aF914.07006274048194
aF1069.982698286032
aF-24.58754150894681
aF-35.167338791626172
aF4.8587288213400228
aF1074.8431308260019
aF20.751120169182563
aF1056.7832693106482
aF-9.8124652020303191
aF1036.0045977289219
aF17.905178428610338
aF-13.048210549286546
aF884.72968635915527
aF15.399121995606359
aF35.895017097770577
aF-23.341495476676403
aF963.65890337824419
aF22.484448482758129
aF10.904932456284781
aF1001.8703297958077
aF-43.221184817162396
aF3.8710014167748614
aF34.457107600168627
aF1020.9619479343471
aF-23.129131179532354
aF1058.5907629595138
aF-13.3685670710124
aF-16.845929132808557
aF-12.161931765514332
aF1031.6664400398736
aF7.220741488892048
aF-17.933143005178746
aF941.05724984507799
aF-14.874306018602075
aF-14.591792091451611
aF1045.2438710868398
aF0.27301241405562382
aF26.333662896490534
aF5.7101051104655438
aF7.9745010847051745
aF973.48560626466599
aF-7.2155368654098302
aF980.93130564350122
aF3.3226128119453353
aF-26.134141028751909
aF-6.88979382182242
aF-21.570137984224818
aF949.18843783724299
aF2.9123065753508346
aF946.2190659424208
aF5.0246998616493821
aF1060.2297489473428
aF2.2579504344955397
aF36.431019185289209
aF39.163261277266919
aF0.29119685754385904
aF1130.4653674161852
aF41.263367726066292
aF961.92303817120467
aF4.2441858477579597
aF-21.721232874125565
aF962.81486162665954
aF33.090755972740929
aF-9.419895650959198
aF1072.3701007222294
aF-7.5446176173667325
aF24.367840463798203
aF-7.9482872551822537
aF-30.078032175900017
aF1058.590797698771
aF22.219462604678778
aF-3.1221810681913449
aF1030.2954465560813
aF973.44287898903872
aF19.070422894893159
aF-20.602423395747593
aF1052.6446075369067
aF-24.972376245461938
aF15.86630462956346
aF8.4119910789460643
aF-5.8166121590676125
aF992.34080681946023
aF-48.026914381512078
aF1102.50042272269
aF-40.974133403946382
aF-24.778237077313729
aF1119.3619835852157
aF1001.8715736102101
aF-22.424055041406888
aF1100.3127279430839
aF9.8551286851660649
aF1.5542250669072661
aF-1.6387055046079277
aF0.058188311049613639
aF-5.7970879163450055
aF926.53484785132218
aF10.937116140506209
aF961.80175491873672
aF4.0987684089706811
aF943.83622286389163
aF18.72811324906888
aF-23.334282235668393
aF919.90348509748162
aF-11.824265890167711
aF-16.024023045230184
aF-6.8172077271259317
aF42.581953551651942
aF868.04659905310757
aF8.8222034549754849
aF-14.802741048883513
aF1048.8008769723617
aF11.866490457418777
aF962.30668386268746
aF-10.798600875780245
aF0.049648873582764486
aF1164.6723608986147
aF948.08224712533661
aF-21.861378589742827
aF1022.5393005597326
aF27.391385725380363
aF34.987962527246275
aF947.60052859086602
aF12.20367669050575
aF10.134490427507579
aF1080.3929607252189
aF30.369547551456343
aF-31.042478397057547
aF890.06171429438177
aF-8.528837594248964
aF0.49299278460067036
aF-15.025645146000203
aF-5.2267993584695596
aF894.26347001313684
aF20.892000568179263
aF992.57451357195839
aF-4.6347168639342042
aF1078.3450181206704
aF1012.5901973092599
aF-23.794667180651647
aF-7.6153326612137331
aF8.4029780733473416
aF-17.396674871072385
aF34.063227713663309
aF1040.6216780137013
aF12.92394217124675
aF1.1176512938483714
aF997.57531107561965
aF10.956467531790262
aF1012.6047576585988
aF-14.115861508554012
aF1079.2460363014945
aF1.8388919522855594
aF984.25058468817645
aF35.284751721373318
aF1154.2438296290475
aF32.292059665412793
aF-12.51204320110017
aF1048.4143436956451
aF41.525824654444548
aF15.816075416153463
aF1038.3599067838497
aF-37.189056192851531
aF7.9524081361040162
aF1005.8286010408865
aF-24.021984764595079
aF3.0284471123144368
aF982.31115518576803
aF-20.223385367054817
aF986.62025061368115
aF-35.363607813007349
aF1043.4879215084611
aF-11.001392841554651
aF937.99393396710968
aF13.102924948310127
aF23.996638111433885
aF-11.453656280105179
aF9.612866110733675
aF1053.8512892805804
aF-38.569530052983552
aF-2.8506035976923503
aF51.167696065134137
aF-15.262377715627675
aF1024.0504723597667
aF-9.7126020168417355
aF7.5396868035090678
aF19.757287237002707
aF969.10047352986612
aF-22.519440649244434
aF1008.639534783092
aF-13.656048137721186
aF17.52161899914616
aF1012.6602643199868
aF14.170828278223663
aF1067.6727006394742
aF-55.08763015568703
aF5.7816666740873996
aF7.7956599752965126
aF1028.116423646366
aF1016.6730692943916
aF1035.5641382640888
aF1031.5770300131906
aF902.9755036007233
aF-1.6266503890861388
aF34.828424513659414
aF-5.1322544201335329
aF22.298025788808712
aF944.90613724033199
aF1083.066953429895
aF-37.145935482450305
aF914.83968021758108
aF13.450714635283198
aF1085.150628757217
aF1064.6913348870519
aF1.4845313668293347
aF28.699482151607306
aF962.77695606781299
aF21.606881063496761
aF31.900194025609075
aF968.3873931216566
aF-14.581533717781955
aF990.63754331208384
aF949.32033881652762
aF-10.164453921095163
aF927.78881334431424
aF-34.879023681702066
aF-42.411340964874896
aF1015.0254286716503
aF-17.51391259196031
aF-1.192211149272236
aF910.60996636908112
aF-41.119147920753122
aF997.94539888372083
aF5.2030150807425128
aF-12.364252341458542
aF1057.8320736368826
aF-11.385501356635903
aF-3.4371146477551435
aF-26.183440640331504
aF-11.207579747827953
aF964.85387844413162
aF-15.750916769393649
aF12.86135575095007
aF987.99364283168984
aF-9.1887750696343726
aF-68.361901712757955
aF1000.5306627855193
aF961.16810507729178
aF1015.8794408458266
aF-48.165554189084503
aF1004.5613771108118
aF30.245288304632414
aF-11.848015635387574
aF1131.7841986312073
aF950.6151615140991
aF-39.187096352484502
aF919.85797568755595
aF-16.370606082533385
aF-11.023760543202551
aF930.31457724392965
aF-20.223865960920197
aF998.72932245736808
aF-23.643069651849167
aF-52.032647345224525
aF-18.621798467787276
aF864.24780043477608
aF40.648586362092338
aF12.485635719738591
aF952.23439650522516
aF-7.371859311419855
aF995.18363948349895
aF-13.254059968734097
aF14.337265201938701
aF-3.3261839967506139
aF16.211839828317693
aF1074.139174661495
aF-10.087982425771164
aF904.48930096073479
aF9.0842068994247516
aF-0.4220891199209208
aF946.92140709184116
aF-27.378548896563728
aF3.814940602605347
aF5.3956601271397435
aF940.23063254604722
aF-15.922400477895781
aF6.274879494548907
aF974.41202259981242
aF14.363341858558419
aF-23.51470777818486
aF-22.367266066999168
aF951.53245999452179
aF1056.8821961344183
aF974.2797783339729
aF5.0956087710680453
aF973.1342393195049
aF-0.48487549782106809
aF5.3911196018824006
aF35.40333353489487
aF1011.7838219109634
aF-21.303413004827721
aF939.32748124646128
aF9.5240512336702583
aF0.36220236398636069
aF1050.4081052988722
aF42.507341543793771
aF1055.8226636867626
aF-15.315517028556171
aF-16.967342302016135
aF-6.5409236400023083
aF-28.404566524894278
aF41.336057845888099
aF909.51985771002228
aF-20.464344284853819
aF7.5154546862177085
aF929.47379834671563
aF966.89872590184143
aF1043.8363313205539
aF967.74388162008802
aF943.55151897067867
aF1013.35891218988
aF-48.289777667663273
aF1013.4766696460173
aF-8.3019251704998034
aF933.02130189564059
aF979.82454256921528
aF10.826500158875172
aF22.23609977106408
aF-9.9065238589767102
aF895.42629386976046
aF1033.7650085054131
aF-26.419340364393445
aF-2.8419668453944009
aF1045.3304269590642
aF1037.5565575658654
aF26.958064399787073
aF917.55386570862493
aF-1.9728745470291336
aF1069.0994429015495
aF-28.893692649280052
aF-22.473997814268785
aF1026.9972040539328
aF6.2716951855902057
aF1013.7031728491301
aF-19.135459133406375
aF-13.405773291252935
aF1024.747144283941
aF31.239715856179213
aF-2.2878756503907827
aF1063.5916560044479
aF994.00118061524631
aF1085.0476371930081
aF1018.9346955919999
aF981.02630476923832
aF-12.315961623885986
aF1033.3195592051256
aF-19.884832176672305
aF1086.3422997247997
aF1089.948013267651
aF-13.820654131725412
aF1010.0176711914314
aF1134.0133980707567
aF-48.292789736819884
aF1039.5433667005323
aF-6.0658259213090426
aF35.599445050683187
aF893.95788310940941
aF912.97805803559447
aF27.184908324890884
aF1024.9079250586999
aF1.472525225721192
aF1005.4274975899647
aF17.484545693171139
aF925.78394689545382
aF-34.416632014764573
aF965.53055305106489
aF914.19651933299031
aF28.735865458125126
aF1031.8596967361379
aF25.813138890047036
aF24.563692965820579
aF1055.1906070264945
aF1086.5947819427661
aF13.468114187807418
aF-12.813392736986273
aF1056.1012294652878
aF-26.752094420026225
aF1027.9653495103669
aF7.5200870390244505
aF1022.887871087179
aF984.73350227425601
aF3.2119742965560669
aF978.67299769512749
aF-33.196767950035316
aF1014.1868246033498
aF1057.2764997292174
aF-15.216392866795037
aF998.6369174062296
aF954.90106260473101
aF1078.9809922782297
aF991.60916989484087
aF980.139645841723
aF1020.2784569576114
aF-5.7754331748898489
aF2.0404211376002506
aF-8.2752009625003176
aF934.21201651093918
aF1019.147716604636
aF1034.7989964933827
aF1.1638870936243366
aF-23.449642607352398
aF1092.635886078124
aF1005.0625569318283
aF1083.803931047164
aF984.36707052852069
aF1057.3355470860913
aF929.76356924498668
aF21.396148357435539
aF1052.943770437791
aF1043.3610400096018
aF1019.5749436920019
aF959.5331478112048
aF930.41539085051556
aF1032.6286330130063
aF4.9165441773389817
aF1024.1518881303691
aF1107.6072629997207
aF971.39933430058716
aF1007.6514067614387
aF22.692355989800468
aF1097.1836298545143
aF1008.1598110487311
aF1005.1692930610582
aF1038.5089238765574
aF949.68407053315957
aF1043.2951673187827
aF1004.8650127406853
aF24.578040280957357
aF977.34335829467489
aF5.1942821518718931
aF936.90665990233072
aF-32.9237508225727
aF951.24434240502751
aF12.976620825879872
aF1019.9827337001312
aF1.2256141352438643
aF1001.6049118767753
aF971.0729403287537
aF957.72738871108663
aF975.52626578186107
aF998.89766790206545
aF973.56130719300143
aF952.69278806347302
aF949.7715416137188
aF974.28989659037643
aF898.4280248875865
aF949.09480919694738
aF1022.6988429363347
aF948.35892041370619
aF973.04990543830502
aF-0.28996713733898249
aF977.07780990786443
aF5.1628957467225183
aF-16.201618129462801
aF1011.9107287308251
aF1026.9203268242227
aF918.24347258308478
aF1217.0982332180433
aF1011.7445525360112
aF961.72715842890295
aF925.73220480416978
aF1001.7653601153918
aF950.75346555742806
aF1039.0521363974576
aF960.7958892640188
aF1084.7239842867043
a(I1741
I1
tp3
S'd'
p4
tp5
Rp6
g1
((lp7
I0
aI22
aI47
aI120
aI255
aI348
aI357
aI485
aI1
aI34
aI39
aI83
aI2
aI329
aI360
aI395
aI3
aI8
aI23
aI59
aI257
aI338
aI412
aI4
aI88
aI227
aI244
aI310
aI341
aI365
aI432
aI463
aI469
aI5
aI389
aI398
aI399
aI491
aI6
aI7
aI126
aI346
aI347
aI363
aI439
aI7
aI107
aI257
aI296
aI322
aI8
aI11
aI20
aI23
aI158
aI187
aI215
aI317
aI352
aI464
aI489
aI9
aI488
aI10
aI48
aI119
aI145
aI343
aI347
aI357
aI422
aI11
aI97
aI196
aI314
aI380
aI458
aI465
aI12
aI40
aI239
aI261
aI274
aI13
aI100
aI191
aI14
aI78
aI92
aI124
aI143
aI197
aI226
aI234
aI241
aI282
aI479
aI492
aI15
aI217
aI436
aI16
aI55
aI87
aI344
aI428
aI479
aI17
aI266
aI355
aI429
aI18
aI289
aI294
aI296
aI424
aI19
aI28
aI110
aI256
aI381
aI396
aI20
aI103
aI166
aI349
aI425
aI445
aI21
aI24
aI77
aI321
aI395
aI399
aI22
aI42
aI181
aI193
aI245
aI311
aI369
aI415
aI468
aI489
aI23
aI32
aI134
aI333
aI350
aI465
aI24
aI190
aI343
aI399
aI25
aI240
aI298
aI336
aI26
aI87
aI199
aI202
aI236
aI246
aI316
aI27
aI47
aI122
aI174
aI235
aI262
aI344
aI440
aI28
aI137
aI476
aI29
aI45
aI387
aI477
aI487
aI30
aI44
aI31
aI124
aI190
aI274
aI299
aI399
aI32
aI451
aI494
aI33
aI108
aI224
aI346
aI366
aI415
aI460
aI486
aI34
aI43
aI121
aI122
aI336
aI427
aI35
aI143
aI160
aI165
aI207
aI225
aI296
aI488
aI36
aI202
aI37
aI202
aI388
aI414
aI38
aI49
aI276
aI399
aI39
aI57
aI110
aI142
aI162
aI182
aI442
aI40
aI50
aI94
aI201
aI399
aI407
aI41
aI68
aI122
aI188
aI215
aI42
aI61
aI152
aI171
aI386
aI466
aI499
aI43
aI59
aI72
aI302
aI44
aI116
aI121
aI131
aI132
aI169
aI307
aI366
aI478
aI484
aI45
aI327
aI390
aI46
aI66
aI259
aI296
aI344
aI370
aI413
aI47
aI282
aI296
aI339
aI374
aI440
aI48
aI78
aI113
aI186
aI216
aI400
aI407
aI489
aI492
aI49
aI395
aI470
aI492
aI50
aI75
aI144
aI196
aI217
aI239
aI276
aI496
aI51
aI174
aI252
aI258
aI411
aI52
aI53
aI151
aI154
aI53
aI102
aI177
aI274
aI423
aI54
aI66
aI107
aI155
aI250
aI314
aI335
aI55
aI344
aI421
aI461
aI56
aI65
aI271
aI279
aI362
aI406
aI478
aI57
aI125
aI403
aI406
aI58
aI274
aI375
aI59
aI183
aI316
aI415
aI442
aI459
aI463
aI60
aI315
aI450
aI61
aI160
aI176
aI193
aI196
aI303
aI378
aI385
aI400
aI430
aI435
aI465
aI495
aI62
aI142
aI196
aI228
aI264
aI274
aI471
aI63
aI276
aI319
aI378
aI64
aI92
aI108
aI152
aI159
aI254
aI267
aI277
aI308
aI439
aI446
aI65
aI212
aI313
aI344
aI389
aI432
aI66
aI153
aI372
aI399
aI420
aI440
aI67
aI130
aI355
aI68
aI250
aI282
aI306
aI414
aI69
aI132
aI301
aI340
aI70
aI73
aI151
aI434
aI497
aI71
aI156
aI269
aI319
aI352
aI443
aI494
aI72
aI221
aI295
aI73
aI226
aI299
aI302
aI307
aI376
aI396
aI427
aI477
aI74
aI119
aI476
aI75
aI261
aI285
aI338
aI346
aI456
aI76
aI123
aI154
aI239
aI276
aI281
aI487
aI494
aI77
aI114
aI147
aI407
aI78
aI390
aI79
aI287
aI346
aI378
aI447
aI495
aI80
aI85
aI216
aI218
aI256
aI81
aI247
aI445
aI474
aI82
aI370
aI430
aI453
aI83
aI289
aI331
aI361
aI378
aI84
aI288
aI352
aI85
aI282
aI367
aI450
aI86
aI110
aI135
aI160
aI376
aI383
aI489
aI493
aI87
aI212
aI313
aI416
aI425
aI481
aI88
aI154
aI207
aI352
aI485
aI89
aI180
aI339
aI457
aI90
aI152
aI173
aI182
aI273
aI295
aI364
aI373
aI387
aI474
aI91
aI134
aI164
aI92
aI129
aI220
aI221
aI242
aI287
aI431
aI93
aI155
aI306
aI310
aI350
aI376
aI498
aI94
aI475
aI95
aI118
aI133
aI165
aI203
aI360
aI414
aI96
aI181
aI97
aI205
aI290
aI98
aI112
aI139
aI188
aI294
aI301
aI379
aI486
aI99
aI149
aI376
aI397
aI100
aI298
aI389
aI402
aI101
aI420
aI102
aI164
aI360
aI103
aI156
aI368
aI473
aI104
aI107
aI116
aI263
aI326
aI477
aI105
aI270
aI493
aI106
aI174
aI107
aI110
aI124
aI304
aI369
aI108
aI210
aI283
aI314
aI322
aI109
aI163
aI288
aI405
aI480
aI110
aI139
aI176
aI212
aI369
aI111
aI134
aI230
aI239
aI305
aI309
aI459
aI112
aI155
aI309
aI383
aI443
aI113
aI160
aI114
aI176
aI189
aI393
aI423
aI115
aI204
aI205
aI208
aI336
aI116
aI298
aI357
aI395
aI117
aI137
aI484
aI118
aI122
aI141
aI161
aI280
aI433
aI119
aI177
aI230
aI315
aI343
aI498
aI120
aI136
aI242
aI484
aI121
aI151
aI290
aI122
aI151
aI397
aI482
aI123
aI127
aI318
aI353
aI379
aI458
aI124
aI458
aI125
aI281
aI301
aI314
aI386
aI434
aI479
aI126
aI216
aI238
aI284
aI298
aI301
aI326
aI372
aI381
aI496
aI127
aI128
aI219
aI231
aI464
aI129
aI274
aI349
aI130
aI327
aI466
aI131
aI141
aI162
aI215
aI341
aI462
aI132
aI202
aI243
aI256
aI326
aI339
aI133
aI327
aI419
aI425
aI134
aI280
aI296
aI358
aI477
aI135
aI147
aI324
aI136
aI172
aI197
aI262
aI289
aI352
aI433
aI137
aI176
aI245
aI412
aI413
aI138
aI286
aI490
aI139
aI274
aI301
aI312
aI370
aI380
aI416
aI140
aI285
aI395
aI420
aI467
aI141
aI253
aI271
aI374
aI142
aI177
aI199
aI338
aI143
aI144
aI215
aI268
aI314
aI352
aI491
aI144
aI240
aI259
aI145
aI187
aI354
aI439
aI146
aI262
aI409
aI147
aI188
aI434
aI148
aI375
aI404
aI411
aI443
aI149
aI198
aI284
aI494
aI150
aI274
aI151
aI227
aI322
aI354
aI152
aI329
aI470
aI473
aI153
aI491
aI154
aI173
aI263
aI276
aI396
aI455
aI155
aI295
aI371
aI156
aI255
aI310
aI448
aI477
aI157
aI274
aI301
aI413
aI423
aI444
aI457
aI158
aI370
aI159
aI188
aI228
aI277
aI339
aI160
aI220
aI283
aI310
aI161
aI276
aI299
aI444
aI162
aI213
aI244
aI305
aI347
aI163
aI355
aI464
aI164
aI165
aI210
aI218
aI357
aI456
aI165
aI228
aI324
aI326
aI328
aI414
aI166
aI188
aI216
aI265
aI409
aI422
aI167
aI210
aI211
aI253
aI349
aI352
aI368
aI444
aI168
aI172
aI439
aI479
aI169
aI491
aI170
aI283
aI329
aI394
aI417
aI465
aI171
aI228
aI376
aI172
aI255
aI277
aI302
aI173
aI203
aI243
aI290
aI472
aI174
aI236
aI319
aI324
aI367
aI423
aI435
aI496
aI175
aI176
aI177
aI268
aI318
aI329
aI337
aI178
aI319
aI386
aI179
aI200
aI241
aI481
aI485
aI180
aI244
aI291
aI315
aI448
aI181
aI212
aI375
aI182
aI183
aI204
aI288
aI303
aI386
aI416
aI464
aI469
aI184
aI478
aI185
aI321
aI186
aI271
aI368
aI386
aI396
aI187
aI429
aI188
aI231
aI292
aI416
aI189
aI281
aI454
aI486
aI190
aI202
aI343
aI191
aI205
aI446
aI471
aI474
aI484
aI192
aI469
aI193
aI239
aI284
aI334
aI387
aI194
aI265
aI438
aI195
aI435
aI196
aI337
aI442
aI197
aI381
aI450
aI198
aI210
aI407
aI421
aI427
aI443
aI199
aI200
aI201
aI211
aI220
aI230
aI201
aI244
aI310
aI361
aI478
aI202
aI220
aI203
aI244
aI370
aI441
aI468
aI471
aI204
aI207
aI383
aI205
aI206
aI304
aI453
aI486
aI207
aI228
aI269
aI208
aI296
aI421
aI209
aI228
aI286
aI380
aI210
aI317
aI370
aI211
aI243
aI251
aI289
aI339
aI361
aI415
aI212
aI213
aI214
aI348
aI498
aI215
aI328
aI352
aI357
aI421
aI216
aI232
aI240
aI488
aI217
aI381
aI218
aI228
aI274
aI219
aI345
aI372
aI490
aI220
aI221
aI222
aI249
aI266
aI331
aI364
aI474
aI479
aI223
aI239
aI312
aI315
aI369
aI224
aI225
aI308
aI313
aI347
aI403
aI421
aI469
aI226
aI267
aI294
aI227
aI341
aI379
aI228
aI235
aI237
aI360
aI413
aI475
aI494
aI229
aI257
aI277
aI291
aI361
aI389
aI455
aI477
aI230
aI311
aI355
aI376
aI380
aI471
aI231
aI358
aI453
aI471
aI478
aI232
aI261
aI467
aI496
aI233
aI308
aI392
aI428
aI234
aI235
aI388
aI463
aI236
aI331
aI468
aI471
aI237
aI257
aI271
aI317
aI238
aI239
aI300
aI374
aI240
aI328
aI330
aI395
aI423
aI241
aI256
aI264
aI266
aI353
aI358
aI393
aI488
aI242
aI244
aI251
aI423
aI243
aI351
aI459
aI244
aI264
aI468
aI245
aI327
aI341
aI372
aI376
aI379
aI246
aI276
aI287
aI247
aI329
aI493
aI248
aI313
aI442
aI249
aI269
aI294
aI325
aI326
aI370
aI250
aI258
aI264
aI320
aI403
aI460
aI251
aI390
aI486
aI252
aI451
aI253
aI390
aI254
aI293
aI339
aI357
aI491
aI255
aI402
aI423
aI466
aI489
aI256
aI330
aI392
aI257
aI304
aI324
aI258
aI320
aI438
aI464
aI488
aI259
aI409
aI260
aI302
aI388
aI407
aI421
aI261
aI394
aI400
aI424
aI455
aI479
aI262
aI285
aI330
aI402
aI452
aI263
aI347
aI441
aI498
aI264
aI443
aI458
aI265
aI342
aI488
aI490
aI266
aI280
aI267
aI274
aI321
aI357
aI460
aI268
aI372
aI269
aI320
aI356
aI378
aI270
aI421
aI453
aI492
aI271
aI272
aI314
aI397
aI273
aI274
aI317
aI275
aI356
aI276
aI400
aI469
aI277
aI278
aI287
aI409
aI483
aI279
aI409
aI280
aI405
aI281
aI390
aI447
aI282
aI303
aI379
aI484
aI283
aI303
aI427
aI284
aI335
aI372
aI444
aI285
aI455
aI286
aI322
aI400
aI450
aI287
aI361
aI391
aI288
aI292
aI373
aI289
aI349
aI357
aI368
aI450
aI290
aI374
aI291
aI351
aI388
aI479
aI480
aI292
aI382
aI293
aI353
aI294
aI295
aI420
aI469
aI493
aI295
aI359
aI296
aI313
aI490
aI297
aI315
aI397
aI298
aI410
aI426
aI429
aI437
aI299
aI424
aI439
aI300
aI301
aI321
aI385
aI302
aI363
aI373
aI471
aI496
aI303
aI388
aI304
aI336
aI443
aI305
aI306
aI405
aI307
aI309
aI381
aI407
aI446
aI494
aI308
aI441
aI309
aI498
aI310
aI322
aI379
aI311
aI330
aI333
aI398
aI496
aI312
aI469
aI474
aI313
aI349
aI314
aI349
aI410
aI315
aI316
aI492
aI317
aI344
aI476
aI318
aI467
aI481
aI319
aI377
aI448
aI320
aI382
aI447
aI449
aI480
aI321
aI465
aI322
aI405
aI323
aI324
aI336
aI345
aI404
aI405
aI428
aI325
aI332
aI417
aI326
aI334
aI327
aI434
aI328
aI399
aI329
aI330
aI330
aI368
aI409
aI331
aI458
aI467
aI332
aI364
aI478
aI333
aI369
aI489
aI334
aI494
aI335
aI464
aI336
aI393
aI337
aI368
aI441
aI461
aI481
aI338
aI398
aI406
aI459
aI465
aI339
aI355
aI385
aI434
aI340
aI457
aI341
aI361
aI478
aI342
aI453
aI343
aI407
aI449
aI495
aI344
aI345
aI346
aI347
aI348
aI351
aI364
aI471
aI485
aI349
aI350
aI359
aI351
aI449
aI352
aI353
aI358
aI370
aI354
aI395
aI489
aI355
aI382
aI356
aI357
aI360
aI358
aI424
aI472
aI359
aI375
aI399
aI360
aI412
aI361
aI384
aI439
aI362
aI434
aI441
aI458
aI469
aI363
aI374
aI421
aI364
aI432
aI462
aI365
aI366
aI367
aI487
aI368
aI415
aI434
aI369
aI370
aI422
aI371
aI399
aI475
aI372
aI487
aI373
aI432
aI444
aI493
aI374
aI383
aI413
aI375
aI396
aI376
aI418
aI432
aI449
aI451
aI377
aI381
aI378
aI380
aI478
aI379
aI402
aI417
aI418
aI380
aI441
aI458
aI381
aI384
aI410
aI464
aI382
aI383
aI384
aI445
aI385
aI388
aI406
aI430
aI386
aI460
aI387
aI463
aI496
aI388
aI392
aI389
aI414
aI415
aI421
aI448
aI496
aI390
aI413
aI438
aI391
aI392
aI393
aI394
aI395
aI396
aI461
aI397
aI417
aI398
aI399
aI442
aI467
aI485
aI400
aI401
aI417
aI479
aI402
aI403
aI444
aI404
aI468
aI405
aI430
aI471
aI406
aI414
aI407
aI469
aI483
aI408
aI423
aI496
aI409
aI410
aI411
aI412
aI413
aI442
aI414
aI424
aI415
aI416
aI424
aI417
aI418
aI430
aI419
aI464
aI478
aI420
aI421
aI480
aI422
aI472
aI423
aI437
aI424
aI492
aI425
aI426
aI457
aI427
aI476
aI484
aI428
aI429
aI446
aI488
aI430
aI474
aI431
aI496
aI432
aI433
aI466
aI434
aI460
aI435
aI436
aI461
aI437
aI438
aI439
aI440
aI441
aI442
aI465
aI466
aI491
aI443
aI444
aI445
aI449
aI451
aI446
aI447
aI448
aI449
aI450
aI451
aI497
aI452
aI453
aI454
aI455
aI456
aI457
aI470
aI458
aI459
aI460
aI461
aI486
aI462
aI463
aI464
aI465
aI466
aI467
aI468
aI489
aI469
aI475
aI470
aI486
aI471
aI478
aI472
aI477
aI473
aI474
aI475
aI476
aI477
aI478
aI479
aI480
aI481
aI482
aI483
aI484
aI485
aI486
aI493
aI487
aI488
aI497
aI488
aI489
aI490
aI491
aI492
aI493
aI494
aI495
aI496
aI497
aI498
aI499
a(I1741
I1
tp8
S'i'
p9
tp10
Rp11
g1
((lp12
I0
aI0
aI0
aI0
aI0
aI0
aI0
aI0
aI1
aI1
aI1
aI1
aI2
aI2
aI2
aI2
aI3
aI3
aI3
aI3
aI3
aI3
aI3
aI4
aI4
aI4
aI4
aI4
aI4
aI4
aI4
aI4
aI4
aI5
aI5
aI5
aI5
aI5
aI6
aI6
aI6
aI6
aI6
aI6
aI6
aI7
aI7
aI7
aI7
aI7
aI8
aI8
aI8
aI8
aI8
aI8
aI8
aI8
aI8
aI8
aI8
aI9
aI9
aI10
aI10
aI10
aI10
aI10
aI10
aI10
aI10
aI11
aI11
aI11
aI11
aI11
aI11
aI11
aI12
aI12
aI12
aI12
aI12
aI13
aI13
aI13
aI14
aI14
aI14
aI14
aI14
aI14
aI14
aI14
aI14
aI14
aI14
aI14
aI15
aI15
aI15
aI16
aI16
aI16
aI16
aI16
aI16
aI17
aI17
aI17
aI17
aI18
aI18
aI18
aI18
aI18
aI19
aI19
aI19
aI19
aI19
aI19
aI20
aI20
aI20
aI20
aI20
aI20
aI21
aI21
aI21
aI21
aI21
aI21
aI22
aI22
aI22
aI22
aI22
aI22
aI22
aI22
aI22
aI22
aI23
aI23
aI23
aI23
aI23
aI23
aI24
aI24
aI24
aI24
aI25
aI25
aI25
aI25
aI26
aI26
aI26
aI26
aI26
aI26
aI26
aI27
aI27
aI27
aI27
aI27
aI27
aI27
aI27
aI28
aI28
aI28
aI29
aI29
aI29
aI29
aI29
aI30
aI30
aI31
aI31
aI31
aI31
aI31
aI31
aI32
aI32
aI32
aI33
aI33
aI33
aI33
aI33
aI33
aI33
aI33
aI34
aI34
aI34
aI34
aI34
aI34
aI35
aI35
aI35
aI35
aI35
aI35
aI35
aI35
aI36
aI36
aI37
aI37
aI37
aI37
aI38
aI38
aI38
aI38
aI39
aI39
aI39
aI39
aI39
aI39
aI39
aI40
aI40
aI40
aI40
aI40
aI40
aI41
aI41
aI41
aI41
aI41
aI42
aI42
aI42
aI42
aI42
aI42
aI42
aI43
aI43
aI43
aI43
aI44
aI44
aI44
aI44
aI44
aI44
aI44
aI44
aI44
aI44
aI45
aI45
aI45
aI46
aI46
aI46
aI46
aI46
aI46
aI46
aI47
aI47
aI47
aI47
aI47
aI47
aI48
aI48
aI48
aI48
aI48
aI48
aI48
aI48
aI48
aI49
aI49
aI49
aI49
aI50
aI50
aI50
aI50
aI50
aI50
aI50
aI50
aI51
aI51
aI51
aI51
aI51
aI52
aI52
aI52
aI52
aI53
aI53
aI53
aI53
aI53
aI54
aI54
aI54
aI54
aI54
aI54
aI54
aI55
aI55
aI55
aI55
aI56
aI56
aI56
aI56
aI56
aI56
aI56
aI57
aI57
aI57
aI57
aI58
aI58
aI58
aI59
aI59
aI59
aI59
aI59
aI59
aI59
aI60
aI60
aI60
aI61
aI61
aI61
aI61
aI61
aI61
aI61
aI61
aI61
aI61
aI61
aI61
aI61
aI62
aI62
aI62
aI62
aI62
aI62
aI62
aI63
aI63
aI63
aI63
aI64
aI64
aI64
aI64
aI64
aI64
aI64
aI64
aI64
aI64
aI64
aI65
aI65
aI65
aI65
aI65
aI65
aI66
aI66
aI66
aI66
aI66
aI66
aI67
aI67
aI67
aI68
aI68
aI68
aI68
aI68
aI69
aI69
aI69
aI69
aI70
aI70
aI70
aI70
aI70
aI71
aI71
aI71
aI71
aI71
aI71
aI71
aI72
aI72
aI72
aI73
aI73
aI73
aI73
aI73
aI73
aI73
aI73
aI73
aI74
aI74
aI74
aI75
aI75
aI75
aI75
aI75
aI75
aI76
aI76
aI76
aI76
aI76
aI76
aI76
aI76
aI77
aI77
aI77
aI77
aI78
aI78
aI79
aI79
aI79
aI79
aI79
aI79
aI80
aI80
aI80
aI80
aI80
aI81
aI81
aI81
aI81
aI82
aI82
aI82
aI82
aI83
aI83
aI83
aI83
aI83
aI84
aI84
aI84
aI85
aI85
aI85
aI85
aI86
aI86
aI86
aI86
aI86
aI86
aI86
aI86
aI87
aI87
aI87
aI87
aI87
aI87
aI88
aI88
aI88
aI88
aI88
aI89
aI89
aI89
aI89
aI90
aI90
aI90
aI90
aI90
aI90
aI90
aI90
aI90
aI90
aI91
aI91
aI91
aI92
aI92
aI92
aI92
aI92
aI92
aI92
aI93
aI93
aI93
aI93
aI93
aI93
aI93
aI94
aI94
aI95
aI95
aI95
aI95
aI95
aI95
aI95
aI96
aI96
aI97
aI97
aI97
aI98
aI98
aI98
aI98
aI98
aI98
aI98
aI98
aI99
aI99
aI99
aI99
aI100
aI100
aI100
aI100
aI101
aI101
aI102
aI102
aI102
aI103
aI103
aI103
aI103
aI104
aI104
aI104
aI104
aI104
aI104
aI105
aI105
aI105
aI106
aI106
aI107
aI107
aI107
aI107
aI107
aI108
aI108
aI108
aI108
aI108
aI109
aI109
aI109
aI109
aI109
aI110
aI110
aI110
aI110
aI110
aI111
aI111
aI111
aI111
aI111
aI111
aI111
aI112
aI112
aI112
aI112
aI112
aI113
aI113
aI114
aI114
aI114
aI114
aI114
aI115
aI115
aI115
aI115
aI115
aI116
aI116
aI116
aI116
aI117
aI117
aI117
aI118
aI118
aI118
aI118
aI118
aI118
aI119
aI119
aI119
aI119
aI119
aI119
aI120
aI120
aI120
aI120
aI121
aI121
aI121
aI122
aI122
aI122
aI122
aI123
aI123
aI123
aI123
aI123
aI123
aI124
aI124
aI125
aI125
aI125
aI125
aI125
aI125
aI125
aI126
aI126
aI126
aI126
aI126
aI126
aI126
aI126
aI126
aI126
aI127
aI128
aI128
aI128
aI128
aI129
aI129
aI129
aI130
aI130
aI130
aI131
aI131
aI131
aI131
aI131
aI131
aI132
aI132
aI132
aI132
aI132
aI132
aI133
aI133
aI133
aI133
aI134
aI134
aI134
aI134
aI134
aI135
aI135
aI135
aI136
aI136
aI136
aI136
aI136
aI136
aI136
aI137
aI137
aI137
aI137
aI137
aI138
aI138
aI138
aI139
aI139
aI139
aI139
aI139
aI139
aI139
aI140
aI140
aI140
aI140
aI140
aI141
aI141
aI141
aI141
aI142
aI142
aI142
aI142
aI143
aI143
aI143
aI143
aI143
aI143
aI143
aI144
aI144
aI144
aI145
aI145
aI145
aI145
aI146
aI146
aI146
aI147
aI147
aI147
aI148
aI148
aI148
aI148
aI148
aI149
aI149
aI149
aI149
aI150
aI150
aI151
aI151
aI151
aI151
aI152
aI152
aI152
aI152
aI153
aI153
aI154
aI154
aI154
aI154
aI154
aI154
aI155
aI155
aI155
aI156
aI156
aI156
aI156
aI156
aI157
aI157
aI157
aI157
aI157
aI157
aI157
aI158
aI158
aI159
aI159
aI159
aI159
aI159
aI160
aI160
aI160
aI160
aI161
aI161
aI161
aI161
aI162
aI162
aI162
aI162
aI162
aI163
aI163
aI163
aI164
aI164
aI164
aI164
aI164
aI164
aI165
aI165
aI165
aI165
aI165
aI165
aI166
aI166
aI166
aI166
aI166
aI166
aI167
aI167
aI167
aI167
aI167
aI167
aI167
aI167
aI168
aI168
aI168
aI168
aI169
aI169
aI170
aI170
aI170
aI170
aI170
aI170
aI171
aI171
aI171
aI172
aI172
aI172
aI172
aI173
aI173
aI173
aI173
aI173
aI174
aI174
aI174
aI174
aI174
aI174
aI174
aI174
aI175
aI176
aI177
aI177
aI177
aI177
aI177
aI178
aI178
aI178
aI179
aI179
aI179
aI179
aI179
aI180
aI180
aI180
aI180
aI180
aI181
aI181
aI181
aI182
aI183
aI183
aI183
aI183
aI183
aI183
aI183
aI183
aI184
aI184
aI185
aI185
aI186
aI186
aI186
aI186
aI186
aI187
aI187
aI188
aI188
aI188
aI188
aI189
aI189
aI189
aI189
aI190
aI190
aI190
aI191
aI191
aI191
aI191
aI191
aI191
aI192
aI192
aI193
aI193
aI193
aI193
aI193
aI194
aI194
aI194
aI195
aI195
aI196
aI196
aI196
aI197
aI197
aI197
aI198
aI198
aI198
aI198
aI198
aI198
aI199
aI200
aI200
aI200
aI200
aI200
aI201
aI201
aI201
aI201
aI201
aI202
aI202
aI203
aI203
aI203
aI203
aI203
aI203
aI204
aI204
aI204
aI205
aI206
aI206
aI206
aI206
aI207
aI207
aI207
aI208
aI208
aI208
aI209
aI209
aI209
aI209
aI210
aI210
aI210
aI211
aI211
aI211
aI211
aI211
aI211
aI211
aI212
aI213
aI214
aI214
aI214
aI215
aI215
aI215
aI215
aI215
aI216
aI216
aI216
aI216
aI217
aI217
aI218
aI218
aI218
aI219
aI219
aI219
aI219
aI220
aI221
aI222
aI222
aI222
aI222
aI222
aI222
aI222
aI223
aI223
aI223
aI223
aI223
aI224
aI225
aI225
aI225
aI225
aI225
aI225
aI225
aI226
aI226
aI226
aI227
aI227
aI227
aI228
aI228
aI228
aI228
aI228
aI228
aI228
aI229
aI229
aI229
aI229
aI229
aI229
aI229
aI229
aI230
aI230
aI230
aI230
aI230
aI230
aI231
aI231
aI231
aI231
aI231
aI232
aI232
aI232
aI232
aI233
aI233
aI233
aI233
aI234
aI235
aI235
aI235
aI236
aI236
aI236
aI236
aI237
aI237
aI237
aI237
aI238
aI239
aI239
aI239
aI240
aI240
aI240
aI240
aI240
aI241
aI241
aI241
aI241
aI241
aI241
aI241
aI241
aI242
aI242
aI242
aI242
aI243
aI243
aI243
aI244
aI244
aI244
aI245
aI245
aI245
aI245
aI245
aI245
aI246
aI246
aI246
aI247
aI247
aI247
aI248
aI248
aI248
aI249
aI249
aI249
aI249
aI249
aI249
aI250
aI250
aI250
aI250
aI250
aI250
aI251
aI251
aI251
aI252
aI252
aI253
aI253
aI254
aI254
aI254
aI254
aI254
aI255
aI255
aI255
aI255
aI255
aI256
aI256
aI256
aI257
aI257
aI257
aI258
aI258
aI258
aI258
aI258
aI259
aI259
aI260
aI260
aI260
aI260
aI260
aI261
aI261
aI261
aI261
aI261
aI261
aI262
aI262
aI262
aI262
aI262
aI263
aI263
aI263
aI263
aI264
aI264
aI264
aI265
aI265
aI265
aI265
aI266
aI266
aI267
aI267
aI267
aI267
aI267
aI268
aI268
aI269
aI269
aI269
aI269
aI270
aI270
aI270
aI270
aI271
aI272
aI272
aI272
aI273
aI274
aI274
aI275
aI275
aI276
aI276
aI276
aI277
aI278
aI278
aI278
aI278
aI279
aI279
aI280
aI280
aI281
aI281
aI281
aI282
aI282
aI282
aI282
aI283
aI283
aI283
aI284
aI284
aI284
aI284
aI285
aI285
aI286
aI286
aI286
aI286
aI287
aI287
aI287
aI288
aI288
aI288
aI289
aI289
aI289
aI289
aI289
aI290
aI290
aI291
aI291
aI291
aI291
aI291
aI292
aI292
aI293
aI293
aI294
aI294
aI294
aI294
aI294
aI295
aI295
aI296
aI296
aI296
aI297
aI297
aI297
aI298
aI298
aI298
aI298
aI298
aI299
aI299
aI299
aI300
aI301
aI301
aI301
aI302
aI302
aI302
aI302
aI302
aI303
aI303
aI304
aI304
aI304
aI305
aI306
aI306
aI307
aI307
aI307
aI307
aI307
aI307
aI308
aI308
aI309
aI309
aI310
aI310
aI310
aI311
aI311
aI311
aI311
aI311
aI312
aI312
aI312
aI313
aI313
aI314
aI314
aI314
aI315
aI316
aI316
aI317
aI317
aI317
aI318
aI318
aI318
aI319
aI319
aI319
aI320
aI320
aI320
aI320
aI320
aI321
aI321
aI322
aI322
aI323
aI324
aI324
aI324
aI324
aI324
aI324
aI325
aI325
aI325
aI326
aI326
aI327
aI327
aI328
aI328
aI329
aI329
aI330
aI330
aI330
aI331
aI331
aI331
aI332
aI332
aI332
aI333
aI333
aI333
aI334
aI334
aI335
aI335
aI336
aI336
aI337
aI337
aI337
aI337
aI337
aI338
aI338
aI338
aI338
aI338
aI339
aI339
aI339
aI339
aI340
aI340
aI341
aI341
aI341
aI342
aI342
aI343
aI343
aI343
aI343
aI344
aI345
aI346
aI347
aI348
aI348
aI348
aI348
aI348
aI349
aI350
aI350
aI351
aI351
aI352
aI353
aI353
aI353
aI354
aI354
aI354
aI355
aI355
aI356
aI357
aI357
aI358
aI358
aI358
aI359
aI359
aI359
aI360
aI360
aI361
aI361
aI361
aI362
aI362
aI362
aI362
aI362
aI363
aI363
aI363
aI364
aI364
aI364
aI365
aI366
aI367
aI367
aI368
aI368
aI368
aI369
aI370
aI370
aI371
aI371
aI371
aI372
aI372
aI373
aI373
aI373
aI373
aI374
aI374
aI374
aI375
aI375
aI376
aI376
aI376
aI376
aI376
aI377
aI377
aI378
aI378
aI378
aI379
aI379
aI379
aI379
aI380
aI380
aI380
aI381
aI381
aI381
aI381
aI382
aI383
aI384
aI384
aI385
aI385
aI385
aI385
aI386
aI386
aI387
aI387
aI387
aI388
aI388
aI389
aI389
aI389
aI389
aI389
aI389
aI390
aI390
aI390
aI391
aI392
aI393
aI394
aI395
aI396
aI396
aI397
aI397
aI398
aI399
aI399
aI399
aI399
aI400
aI401
aI401
aI401
aI402
aI403
aI403
aI404
aI404
aI405
aI405
aI405
aI406
aI406
aI407
aI407
aI407
aI408
aI408
aI408
aI409
aI410
aI411
aI412
aI413
aI413
aI414
aI414
aI415
aI416
aI416
aI417
aI418
aI418
aI419
aI419
aI419
aI420
aI421
aI421
aI422
aI422
aI423
aI423
aI424
aI424
aI425
aI426
aI426
aI427
aI427
aI427
aI428
aI429
aI429
aI429
aI430
aI430
aI431
aI431
aI432
aI433
aI433
aI434
aI434
aI435
aI436
aI436
aI437
aI438
aI439
aI440
aI441
aI442
aI442
aI442
aI442
aI443
aI444
aI445
aI445
aI445
aI446
aI447
aI448
aI449
aI450
aI451
aI451
aI452
aI453
aI454
aI455
aI456
aI457
aI457
aI458
aI459
aI460
aI461
aI461
aI462
aI463
aI464
aI465
aI466
aI467
aI468
aI468
aI469
aI469
aI470
aI470
aI471
aI471
aI472
aI472
aI473
aI474
aI475
aI476
aI477
aI478
aI479
aI480
aI481
aI482
aI483
aI484
aI485
aI486
aI486
aI487
aI487
aI487
aI488
aI489
aI490
aI491
aI492
aI493
aI494
aI495
aI496
aI497
aI498
aI499
a(I1741
I1
tp13
g9
tp14
Rp15
(I500
I500
tp16
g4
tp17
Rp18
.