(dp0
S'A'
p1
ccvxopt.base
matrix
p2
((lp3
F-0.047121492889140526
aF-0.18144060807472698
aF0.013653087886340971
aF0.031338060875565184
aF-0.12489097623978924
aF0.12973250054160473
aF0.12954172641598308
aF-0.0040995849133497603
aF0.035653627548439031
aF0.019024333249689017
aF-0.020339118395864945
aF0.079064069126614622
aF-0.064088324013841361
aF0.23782557495695772
aF-0.014858299759211343
aF0.012411119529011944
aF0.11620850643937246
aF0.006457832089142761
aF-0.010419469033861289
aF-0.090672075692189394
aF0.032071673010384889
aF-0.14555711014719719
aF0.07781501960401431
aF0.17686290293608883
aF-0.075358658263208797
aF0.093465957100732716
aF0.13660477573812255
aF-0.17361309774242523
aF-0.15697161077767993
aF0.062218025991932782
aF-0.043561577143116731
aF0.075164936108880781
aF0.088849899162438697
aF0.077551807520013061
aF0.14055349171253498
aF0.072834065866027101
aF0.129724069901409
aF-0.13098979129424682
aF-0.0021557775409096467
aF-0.017072015304311697
aF-0.17474122810953441
aF0.028029463658557609
aF-0.11508698868103193
aF0.15415858545699271
aF-0.087702607205726243
aF0.057598675082274363
aF0.023891720366797896
aF-0.10042744966489837
aF-0.23646265258303609
aF-0.0064476318414473039
aF-0.1100934882911646
aF0.066936596360841566
aF0.055310795442402944
aF0.18436502454233675
aF0.064411430316731702
aF-0.070110110574056847
aF0.041432078209956348
aF-0.10992810496200837
aF-0.0021253968215440878
aF-0.0052529366981838637
aF4.7051077752639194e-06
aF-0.034626052495573517
aF0.1192843465666204
aF-0.20414332429808865
aF0.046644189537202396
aF0.097566470336184194
aF0.07962691394933645
aF0.062948950331545558
aF0.0043916132417927533
aF0.073758781316401206
aF0.061973203227714539
aF-0.027848760032708052
aF-0.04111962006497568
aF-0.032232493208965825
aF-0.16069393135009905
aF-0.025491255353614174
aF0.012902800686174306
aF0.034293755997786383
aF0.15724872125227904
aF-0.038233469749768739
aF0.067892044618562922
aF0.087044444611906774
aF0.10249594389065429
aF-0.10807361675269353
aF0.023098071430485846
aF0.025913708435641641
aF-0.10978081024929962
aF-0.080834722518353636
aF0.11789991367740858
aF-0.014324933864518793
aF0.042471671834554331
aF0.0095848846381839225
aF-0.069224470658927173
aF-0.060957176075504237
aF0.048329439181683309
aF-0.10347786943300687
aF0.085098101072843255
aF0.061979787322346581
aF-0.089513532125449186
aF-0.028933910070392262
aF-0.12939061325337353
aF-0.23991003719032941
aF0.10744676662947422
aF-0.056497565080437621
aF0.035661819759381631
aF0.025497025122240103
aF0.0023384160791418435
aF-0.10936479526342273
aF-0.10317745541269685
aF-0.040788483438399976
aF-0.12918463846813083
aF-0.11502489517503948
aF0.16040475533374124
aF0.0060724601390490197
aF-0.13260860386657536
aF-0.0044910821108667892
aF-0.1229162566211242
aF-0.14698368997736475
aF-0.028443132558503413
aF0.10386585781600347
aF0.014013894413311603
aF0.071512357138380681
aF-0.1272165243778198
aF-0.050176073301293853
aF-0.028588923652406405
aF-0.13215484719392676
aF-0.143733007094201
aF0.10144227718402329
aF0.0012249639611970841
aF-0.070279026763985675
aF0.087772150168862265
aF0.025232203658383471
aF-0.10781957313251977
aF0.14592790810398251
aF0.031536934346781835
aF0.16110598402803841
aF0.12397120035282824
aF-0.07452670817303754
aF-0.14073718789332237
aF-0.0079442315158470417
aF-0.036013823484595628
aF-0.091900664917866998
aF0.054224590318273258
aF0.16214886479654383
aF-0.059530408630335957
aF-0.092241688955862169
aF-0.026834695396231682
aF0.072226604526381688
aF-0.09305208013744444
aF-0.13086535478608774
aF-0.013057988655794779
aF-0.0071128103212818256
aF0.052865722032410432
aF-0.064869863626206767
aF-0.016304071293831084
aF-0.047359746993677239
aF-0.0086418461244810851
aF0.16723197232862141
aF-0.066067273571916107
aF-0.14677509349552206
aF0.051132299150553714
aF-0.098430159196267006
aF0.0039085521896310704
aF-0.068360178940379573
aF0.058323632023784482
aF0.060228423673130756
aF-0.022189043650150651
aF-0.22378807347929303
aF0.014440517111852723
aF0.17352716181453826
aF0.11094079448199717
aF-0.17216131120280773
aF-0.0085690443950981032
aF-0.074256361186558609
aF-0.11160979424013918
aF-0.13446442494947738
aF0.031461222727192907
aF-0.046766167605753001
aF0.006078708475653909
aF-0.040074345386600665
aF-0.05065192228046999
aF0.040410629917476265
aF0.079335577156967305
aF0.23008838853301072
aF-0.14785737130078022
aF-0.11139814279937914
aF0.11305657675264319
aF-0.04246285449537273
aF-0.15046831491058235
aF0.034373669633165738
aF0.16920264130784787
aF0.077114494202908709
aF0.21322791258756341
aF0.054962373945926908
aF0.20311266344110002
aF-0.037017431437695113
aF-0.12416198814588042
aF-0.022998758696266174
aF0.12965945635232845
aF-0.12159431752427582
aF0.069203654170072057
aF-0.065514892742524575
aF0.06004336410791386
aF-0.11981123472051891
aF0.0093673942549961069
aF-0.21836731464692877
aF-0.053714583772163024
aF0.050333248387719944
aF-0.034968679644933755
aF0.13470431896234991
aF-0.068768515289858168
aF-0.25329711699930729
aF-0.13416845429946414
aF0.11499716731057563
aF-0.012334067098716265
aF0.041310764915469943
aF0.10285649577612264
aF-0.23098890258340468
aF-0.070228164947500171
aF-0.076723182292484052
aF-0.11091088392794095
aF-0.019835107338657735
aF0.16569173593403685
aF-0.0041873307557215873
aF0.13371217478733299
aF-0.075841142552102808
aF0.00081968072468956946
aF-0.085284535497225145
aF0.063938213204799282
aF-0.0273653015663179
aF0.052303645971496691
aF0.072785538409090356
aF-0.0085319276901602136
aF0.096862111986689495
aF0.25156247329468068
aF0.057151569335613946
aF-0.0012840533648383926
aF0.099473090284227142
aF0.0060939036930459014
aF-0.12059877453397955
aF0.052887743415860555
aF-0.00054522823192128592
aF-0.030089821336726406
aF0.13905048343871038
aF0.20298974027402311
aF-0.056925052061492877
aF0.01126655292117313
aF-0.087981342365869075
aF0.074123648135745263
aF-0.25758684186969244
aF0.10785826692162294
aF0.023845798578945508
aF0.028504227406500666
aF0.13218670270320201
aF-0.029920876835725915
aF-0.014503015294160303
aF-0.13840207228874429
aF-0.18122514256394176
aF-0.076641756908064698
aF0.030597745331824355
aF-0.058956694838592179
aF-0.1452683092198872
aF0.11685319054521937
aF-0.077571103085402243
aF-0.0012293937905002597
aF-8.9003160703675995e-05
aF-0.027172367706111301
aF0.043200973733066972
aF-0.028760322372627802
aF-0.18126919854557264
aF-0.11209150985942504
aF0.026481546539927601
aF-0.13688677454289985
aF-0.037820437007946864
aF-0.10254847813891957
aF-0.12795084682853158
aF-0.11123817623942317
aF-0.04375560765388805
aF0.018918287729728357
aF-0.012649380192028931
aF0.11591993055331405
aF-0.026731181846773856
aF-0.1653132836256232
aF0.0010603916403064677
aF0.0077750104820258651
aF0.034481861908635551
aF0.054448561286509302
aF0.13922822991158412
aF-0.059676409138558852
aF0.028411190151574905
aF-0.0014354021257452765
aF-0.063211119633508089
aF0.23271898099751898
aF-0.028063547380331507
aF-0.15354713309711385
aF0.19282612550218259
aF0.035463385826031861
aF-0.12190269293450637
aF0.067577907184326144
aF0.13832381804641797
aF-0.097610483953971053
aF0.014725351182560374
aF-0.015146338004887164
aF-0.12673458775376073
aF0.12894861162379193
aF-0.0016808318167076777
aF0.058413039472488555
aF-0.078044226896787625
aF-0.071413430514105217
aF0.034245140430225592
aF0.011635802509755055
aF0.20133562660191837
aF-0.029968665465767808
aF0.2410248095114626
aF0.164331410680021
aF-0.2118873402834307
aF-0.18307010286194636
aF-0.062478000756624734
aF-0.020241942801833085
aF0.00097323882365007953
aF0.091173223707965781
aF-0.078680631082447258
aF-0.07859564042940495
aF-0.021915673178974578
aF-0.0022292655246742323
aF0.030380911247260761
aF0.11528545606273045
aF0.067722043900426313
aF-0.19070345915690118
aF0.0759656283006334
aF0.088399297212447978
aF0.069320303280407711
aF0.14271373872014315
aF0.035632402034600837
aF-0.073312580542513731
aF-0.016267006740299402
aF-0.26678400460112717
aF0.051557417564956375
aF0.012739487327996155
aF-0.064391958352890494
aF-0.071320648914749735
aF-0.11772201154673698
aF-0.00519956679273489
aF0.041323936760450208
aF-0.035987915002732372
aF-0.05445646816548369
aF-0.0039193334123252621
aF-0.019037534918053985
aF-0.10427977126792852
aF0.1408038403997238
aF0.048030537959775722
aF0.13953943528531315
aF-0.054220248277118056
aF-0.12186751367406615
aF0.08798139558526144
aF0.0044880803988166882
aF-0.082377663368142451
aF-0.0097092930183985734
aF-0.21883431946095702
aF0.11807672458987292
aF-0.10688609639962256
aF-0.075000581577427367
aF0.1459163371476368
aF-0.099048498563631557
aF-0.044974699755641584
aF-0.055138939455148785
aF0.17644739554527483
aF0.0088129274186113399
aF-0.11776500158360284
aF-0.12249946516810253
aF0.189076083528436
aF0.21105725441858653
aF0.17811632703103841
aF-0.13681597314575153
aF-0.023261730525026118
aF-0.021670683441533216
aF0.033497454991407542
aF-0.062346333333855579
aF-0.10650022689755148
aF-0.048673229346148268
aF0.11787779415825507
aF0.25846465199197088
aF0.024977548823577698
aF-0.02904461916020331
aF0.076436731823846332
aF-0.053115721056811678
aF0.20288942325829168
aF0.12057494122875574
aF-0.13372500006643015
aF-0.072974004377627202
aF0.14607428983794427
aF0.042275896557660717
aF0.042817915428542047
aF-0.18598856149033577
aF0.024821805241696551
aF0.074689486917569617
aF-0.069368797409821409
aF-0.10921894068898159
aF-0.020220607376157947
aF-0.11482116372717897
aF-0.007793161691459943
aF0.030414508987519139
aF0.14959789275756513
aF0.019591001610441611
aF-0.059044630151178341
aF0.1780207214689784
aF0.089894898655458591
aF0.025137989117187506
aF0.073164513996255509
aF-0.055347516929667565
aF0.093286750630726833
aF0.029249451733341019
aF0.068081736044857913
aF-0.11409186755203307
aF0.16728841327795888
aF0.047324213097212589
aF-0.20884339422840931
aF0.051192911141795451
aF0.13882157365397593
aF0.069559688550145576
aF0.15041568317065221
aF0.14377721924748746
aF-0.099068768787591702
aF-0.25116132699664229
aF0.19485551588175759
aF0.042571600028842756
aF0.0022139618067442235
aF-0.044225147227447005
aF-0.16720389786495465
aF0.02411530200928385
aF-0.14972897564654417
aF-0.091427656893414269
aF-0.022728499012089131
aF0.08234546141490133
aF0.040930671806609718
aF-0.14656270183041825
aF0.16142834351606136
aF0.0035661145637065753
aF0.20375797374688584
aF-0.13170150892157881
aF-0.085256084203139335
aF-0.083585744805455955
aF-0.011677854602788697
aF-0.10643577053217325
aF-0.10501214608766023
aF-0.25917538854437566
aF-0.091308087961901305
aF0.028033973606397342
aF-0.020025975991481974
aF-0.018259189784959537
aF-0.012744198980566546
aF0.018354276792395773
aF-0.054598960199194871
aF-0.076807573784959879
aF0.055356972886135496
aF-0.045853131429437137
aF0.024960667800576597
aF-0.10452290870943119
aF-0.015909164589905343
aF0.081106327692884408
aF-0.097006278322856201
aF0.01514871808610499
aF-0.025724403656486667
aF-0.0082201480966062387
aF-0.039061068740104107
aF-0.22632736979755652
aF-0.015637166926041612
aF0.15178379898882005
aF0.07100434675126939
aF-0.041083083472510461
aF-0.072054368716034142
aF0.027120263119125541
aF-0.041778372612671755
aF-0.05757000259232347
aF0.0060337372424810456
aF0.13657941014069577
aF-0.27451685946657306
aF0.063711362510221234
aF-0.10981360250779883
aF0.10286576591665671
aF-0.26405402335554562
aF-0.024383100024041291
aF0.0063258487363441309
aF-0.046255372045695138
aF-0.022104887553545578
aF-0.16482719862185519
aF-0.12269925753297119
aF-0.088782345111137737
aF0.039937163732216334
aF-0.063847600902896387
aF0.16747781270608153
aF0.01525870657873942
aF-0.20292068115794726
aF-0.049477572422454284
aF-0.071033760708656801
aF0.011254943705492577
aF-0.024034528767243057
aF-0.030397618260174054
aF-0.079921547960864217
aF-0.0070299722908437317
aF-0.15730273362219824
aF0.066705353642745754
aF-0.14417593327352196
aF-0.072068924309443019
aF-0.015916998855392411
aF0.027025160816212056
aF-0.008347975635986004
aF0.18934772710557662
aF0.17668967818305148
aF0.06824085979940521
aF0.010001723033531109
aF-0.087976757898622901
aF-0.050255804506895166
aF-0.15315940091384242
aF-0.040799424630402037
aF-0.051298764678507455
aF0.19077757184164942
aF0.082052602319217419
aF0.0070796206965107328
aF-0.031892305071236172
aF0.0090223155036073463
aF0.083465148875494208
aF0.24367147492332181
aF0.035609439521581
aF0.09404410509610385
aF0.074009050366022316
aF0.060432579873736771
aF0.10911271513564805
aF0.13718907384598433
aF0.0048096008945879816
aF-0.03422062038389511
aF0.024696420519342288
aF0.10857473973271953
aF0.13245547001126098
aF-0.059119344311806966
aF0.099373689674528462
aF-0.018752212216090598
aF-0.036597253474640323
aF0.058986918507246473
aF0.10153963232292151
aF-0.062120531673706021
aF-0.16325073330027248
aF-0.0054844079856175018
aF0.06024381144998503
aF0.0090958510001425911
aF0.17184768846501866
aF-0.036032922346402055
aF0.086620274611331857
aF-0.085492286299660727
aF-0.13759827102485228
aF0.072622130481076311
aF-0.15170653459972169
aF-0.14167690782769218
aF-0.065908152043950979
aF-0.16215692964682762
aF0.060844935422510842
aF-0.030213618687332022
aF-0.14092768433196676
aF-0.096781779206510751
aF-0.10746666746651859
aF-0.0078016755711929715
aF-0.26303371546111293
aF-0.075638981993101567
aF-0.15157110718952155
aF0.035910217419041844
aF0.065202505395937485
aF0.016032567345209772
aF-0.011050267039152576
aF-0.28704191305119819
aF0.0030560015917348747
aF-0.095460935057567309
aF-0.028919813495361529
aF-0.035684733847812442
aF-0.12617381081517315
aF0.06318815704056259
aF0.026117815167530572
aF-0.038223685204595535
aF0.097180841418793421
aF0.17193214840177426
aF-0.12071904300093587
aF-0.00282480130863415
aF-0.12098634611228755
aF0.081792199509522989
aF0.054485747848417435
aF-0.056347868466662218
aF-0.060917544136144149
aF-0.08206850721072427
aF0.10085350234227369
aF-0.027072586888005842
aF-0.016322238773978457
aF-0.13708561051422924
aF0.034055278801554907
aF0.29306559879887312
aF0.031558095816077221
aF-0.15499319401696574
aF0.026883627672430774
aF-0.15640606864830528
aF0.016184829110890087
aF-0.18443503698625646
aF0.078344872239879043
aF0.12437914246514728
aF0.16906034015175589
aF0.15072589090650571
aF-0.082582858851427673
aF0.048221511951321405
aF0.099250544970391236
aF-0.11700562881270533
aF0.021978954654336528
aF0.083102584830475612
aF-0.14032880679491039
aF-0.10381099582364391
aF0.084770520429373691
aF-0.00068967572326516569
aF0.057135025339246769
aF0.14861709041888826
aF0.052511004775865427
aF-0.085739099970632227
aF0.081919118538924598
aF-0.018179951896739256
aF-0.088915894410867849
aF0.22811720996929766
aF0.008731424476144202
aF-0.10210433619592615
aF0.069254270332745421
aF0.18323189512109797
aF0.064667600514845033
aF0.086075386003257939
aF0.011465838775142515
aF-0.017274772159821834
aF0.094872394093905785
aF-0.021216084178903347
aF0.0082218209454432371
aF-0.057369021790076642
aF-0.074673312534012187
aF-0.029236836531086646
aF-0.12945259166809472
aF0.027078977095147207
aF0.011160577614654736
aF-0.004467088424104604
aF-0.24484061389055975
aF-0.055641488757311945
aF0.027151273139604592
aF0.04021848262191545
aF0.019520802558325334
aF-0.0040614724075353735
aF-0.17465672758504019
aF0.036969528476953034
aF-0.014285184711580721
aF0.052854200678004122
aF0.065224969749770476
aF-0.0093717836003376891
aF0.03543572304234175
aF-0.03650886269521731
aF-0.03512603766345572
aF-0.04165396523517316
aF-0.10385556206650205
aF0.025444582246111947
aF0.13456150491767382
aF-0.063022400198104289
aF-0.054635025640397558
aF0.078745212584835772
aF0.004302771621922408
aF0.16789936321638935
aF-0.1853043687096679
aF-0.11261071723849231
aF-0.083194571109282078
aF0.2370891893945862
aF0.047017709151465102
aF-0.04834160633984682
aF0.003267603037140058
aF-0.034387639133045184
aF0.10652172390375617
aF0.0019929539991309139
aF0.089104866662205948
aF0.076509601069335187
aF-0.025193483058833576
aF-0.01238478627198507
aF0.013937213747456701
aF-0.087083779066319394
aF-0.025993218355501287
aF-0.0097456871140634751
aF-0.11146938927188198
aF0.10213079153096691
aF-0.12328395822386423
aF-0.077420405915042137
aF-0.1273996984528642
aF0.11606350652495633
aF-0.074118763497391382
aF-0.18799722449492529
aF0.088585983261250945
aF0.15706989054637469
aF0.073234042505101585
aF0.015105481392371061
aF-0.09363341801796965
aF-0.08194649306358677
aF0.13394824748765219
aF0.12535754555504958
aF-0.066235268060271815
aF0.087818896732836729
aF0.023653389946325647
aF-0.040683020672773434
aF-0.090637322238969392
aF0.031249810436904411
aF-0.1981411488444646
aF-0.17136051864498461
aF0.21957675131751392
aF-0.007841369294604543
aF0.28638052178590517
aF-0.026505757237590941
aF0.018875892987523662
aF0.10056965927981314
aF-0.019450689550622312
aF-0.056831978473320478
aF0.15599092702035544
aF-0.094786334837419176
aF0.087969649391793997
aF-0.055626038278359935
aF0.080994789724214603
aF0.092365890345922824
aF-0.090405321274879213
aF0.058061804263721102
aF0.11251344969759916
aF-0.11460234047431879
aF0.039446897887691255
aF-0.0040073539490906064
aF-0.13373260957475469
aF-0.029967924537691308
aF-0.017477029773429138
aF-0.11803933598894803
aF-0.21288236983954736
aF-0.099075089325871932
aF-0.00060771927913954899
aF-0.18774855079991873
aF0.13759345245432611
aF-0.065408272257620442
aF-0.22483386511406242
aF0.012082094842997404
aF0.16205341435466533
aF0.0057737938332414196
aF0.017645389232648179
aF-0.0029279488857894358
aF0.018908540531605893
aF0.096099036437980942
aF0.019858261505830404
aF0.082278185661047012
aF0.05534279702140401
aF0.014366377125894229
aF0.030513169913774653
aF-0.10706660103823593
aF-0.10284426286600654
aF-0.0014224218474195866
aF0.038600639614610167
aF-0.097465199369841007
aF0.088467398894731819
aF0.011932462914636116
aF0.29757192091411333
aF0.044780950612495159
aF-0.14236314497595079
aF0.041810000501406826
aF0.054413485350940212
aF-0.055642481230219518
aF0.025591257844392486
aF-0.065124141234068358
aF0.0022626712863536478
aF0.045692040637950036
aF0.12975301114626756
aF0.08401230427747082
aF-0.28804859100671387
aF0.031093335721601369
aF0.089990485664747127
aF-0.00088482457201784605
aF0.093514050802549806
aF0.084401637789930123
aF0.14226329038712243
aF0.13415385696408311
aF0.10442123304903894
aF-0.18023832538139095
aF-0.10788889283528291
aF0.074646257621031137
aF-0.1061975667014108
aF-0.066093720530668296
aF0.074815947893808299
aF0.0021840242439781594
aF0.11588522422991687
aF-0.14608740639825177
aF0.052235519677218498
aF-0.17799712748374791
aF-0.15715686453250796
aF0.032003109827795924
aF-0.015290576115307311
aF-0.12313378708968675
aF-0.031867663311352976
aF-0.063458606261120945
aF-0.09764379306223156
aF0.027081384859451677
aF-0.16227663700789621
aF0.034152098847243434
aF-0.22060278072985975
aF0.057625548703312407
aF0.037416038262748898
aF0.082593791066940689
aF-0.075376576199407574
aF0.074095321559523336
aF-0.11683736900745113
aF0.098016766072835285
aF-0.23127929226245159
aF0.031015161333826851
aF-0.079884609929352771
aF-0.084247754874148192
aF0.016540893941334234
aF-0.036694041244855015
aF0.10574992010134951
aF-0.011681803786322513
aF0.11040484364061344
aF-0.051781948715113942
aF0.0075108733765325382
aF0.043420668516944733
aF0.1216071149484908
aF0.067588908146396121
aF-0.031337849919446673
aF-0.14943427090853711
aF-0.074715149074777568
aF0.036132111294399409
aF-0.10868693012735398
aF0.031745660829168645
aF0.12059970080144922
aF0.026684591378337098
aF0.017971653563712095
aF0.044252853113847315
aF0.13246303973315673
aF0.15778425671071256
aF-0.11167345813968702
aF0.022377232847357344
aF0.064149942323049713
aF-0.028761441031593438
aF0.27182770513610582
aF0.093242748409891343
aF-0.092698722904248618
aF0.0884421064747095
aF0.076280904353520515
aF0.082783960858972813
aF-0.18659594209756156
aF0.16743556929369902
aF-0.17536882991248864
aF0.1208663294991984
aF-0.12088572408209365
aF0.04199114858719967
aF0.10514751722115181
aF0.089141293760822415
aF0.0040359125975843197
aF-0.10087525746777923
aF-0.012191871410870258
aF-0.08747812321495145
aF-0.18137759635861819
aF-0.098194168883553548
aF0.064091932843957547
aF0.060367398507673149
aF-0.045226871133904056
aF0.0067316294046476498
aF0.049830355875853154
aF0.021679601060003162
aF0.02805708827761523
aF0.22666451320399861
aF-0.24807099638694616
aF0.036931443851006322
aF0.031579621227516771
aF0.072143454900635132
aF-0.06327607031837619
aF0.096707346505539651
aF0.018722789931641753
aF0.092466452429488505
aF0.10498828036095313
aF0.14400327494914161
aF-0.0070094187551511533
aF0.14347331532442872
aF0.024839091586394583
aF-0.15573767433949129
aF-0.016307693677312111
aF-0.055008693850193489
aF-0.18836420747296501
aF-0.045477380151625252
aF-0.066991660350122981
aF0.078517882628457034
aF0.036968630226676728
aF0.096172821362334002
aF0.03096428173460071
aF-0.015854561720605394
aF-0.0097655854800728237
aF0.03149976947477498
aF0.12689096969094771
aF0.087772210782490659
aF-0.14767716163243502
aF0.013169480327563
aF-0.024202974260102598
aF0.06228172216203063
aF-0.032695829164779429
aF0.12356256463592434
aF-0.019538209050082016
aF-0.15981506431457013
aF0.15200213438740301
aF0.048022479997309978
aF0.061590170091398132
aF-0.075559849635879653
aF0.090837633315973457
aF-0.24372904871434006
aF0.11957197391032559
aF-0.00017613890291797655
aF-0.17588371118407306
aF-0.13385148185046231
aF0.022593639626333196
aF0.024068339945346
aF-0.1095966739401696
aF-0.049354910650388516
aF0.15244958751340484
aF-0.050324094602053074
aF0.0035639104883209423
aF0.087015531333936844
aF0.097694721319296643
aF0.015021249497558165
aF-0.17638188646122324
aF-0.17937316676669177
aF0.046701228497931131
aF-0.080310317967462699
aF0.061540288116242736
aF-0.15078434188818388
aF0.050139341325869051
aF0.068561973420778036
aF0.041378706770063077
aF-0.11038719362728393
aF-0.037826928719204171
aF0.048139762705270837
aF-0.17323299225540204
aF-0.07640890212034912
aF-0.1173885387007613
aF0.10917690534684521
aF0.18840114013527673
aF0.077238497404089029
aF-0.081472222807072517
aF0.024931147936774797
aF-0.024346627056021936
aF-0.092951629686625431
aF0.037650891797097068
aF0.01195720516792574
aF-0.12342771664204136
aF-0.074416134441641676
aF-0.030268297223749529
aF0.071329601029644571
aF-0.13599393575199947
aF-0.065092976687179921
aF-0.052486300166637155
aF0.10712374986977127
aF0.19195679963661544
aF0.15549414879972454
aF0.099323001153812235
aF0.035602459829127055
aF0.0075839028778393837
aF-0.16337680091885587
aF-0.04555918692992033
aF-0.0022916457452067125
aF0.024883450017052007
aF-0.10982791358719954
aF-0.07240068492889018
aF0.060805023761267278
aF-0.12947395321345848
aF-0.084477157965542365
aF0.029525996633624037
aF0.16721273307434836
aF-0.11463052433105551
aF0.068145288251539038
aF-0.086889479441911055
aF-0.034153550859299407
aF-0.065601782333039163
aF0.13715586768769539
aF0.0935190718890163
aF-0.22934019038356929
aF-0.03931872946836952
aF0.060301759526809898
aF-0.16954483645838328
aF-0.022513152030377195
aF-0.04635924501556437
aF0.053789784671182859
aF-0.094872411493646253
aF0.0086960342054503703
aF-0.056822635373481714
aF-0.15401908223176772
aF-0.041863017871182261
aF-0.049883804319587707
aF-0.031751389755047807
aF-0.032813869340476386
aF-0.17305363128762391
aF0.1192062316993875
aF0.14424825493758009
aF-0.013778071229778749
aF-0.080303017172008759
aF0.023281483842316576
aF-0.043631683044651148
aF0.0070740001985779575
aF-0.19150743327754091
aF0.18374607203251675
aF0.035665375877475605
a(I100
I10
tp4
S'd'
p5
tp6
Rp7
sS'b'
p8
g2
((lp9
F-0.16143195583510889
aF-0.67768343369526307
aF0.16084359462457573
aF0.10428881011413052
aF-0.2655660443561319
aF0.35919523061889325
aF0.16074025143663787
aF-0.11421264589574148
aF0.098575589230285338
aF-0.021461162957776336
aF1.2870291537691783
aF0.22335913212959874
aF-0.18518011941716028
aF0.72719403274095085
aF-0.054520392271940908
aF0.055706624603291927
aF0.37152784451573234
aF-0.0026790126321343567
aF-0.065305446670940251
aF-0.28319748376470066
aF0.12179419200875374
aF-0.46190759357216132
aF0.24532948045493169
aF0.57741574009209129
aF-0.20038800518743327
aF0.28434957039940145
aF0.41205424755274606
aF-0.52413630165258562
aF-0.43005085334118509
aF0.21446375085140315
aF-0.10612113952760373
aF0.25388213127924197
aF0.25844013670185351
aF0.2311036000053617
aF0.4426226427094434
aF0.25002892502222307
aF0.41806883402445871
aF-0.41824718377434011
aF-0.049830631694555358
aF-0.090913971598374915
aF-0.52843704660670243
aF0.091982740793313131
aF-0.34299336373036504
aF0.51841960641550788
aF-0.24989594994933934
aF0.15668483679512873
aF0.086065466792963577
aF-0.30200799730645128
aF-0.69916629701899902
aF-0.035171689140503309
aF-0.34615218824469418
aF0.18552621575276762
aF0.1765564681877021
aF0.56172664224590207
aF0.16514178827701431
aF-0.26105954348224142
aF0.13476505078644202
aF-0.27374501099003851
aF-0.017102093695764001
aF-0.068996860348989178
aF0.051640117356078631
aF-0.12095289663013524
aF0.40856213778679173
aF-0.67228595777644418
aF0.1363984331429296
aF0.31097275492788917
aF0.26695864898146232
aF0.18710267994878738
aF-0.0029622200880384877
aF0.25177200926602317
aF0.18701557903892782
aF-0.10280763300825679
aF-0.15555116047213355
aF-0.089792732233990868
aF-0.48911861854845107
aF-0.12748333832274483
aF0.071923350466736591
aF0.11594797486324034
aF0.48429640311993932
aF-0.13201718008527658
aF0.23117313315298862
aF0.2262593150867224
aF0.33708782380681585
aF-0.32833055771415132
aF0.054518808290491542
aF0.063110698981614963
aF-0.28119470239217825
aF-0.24684768490375322
aF0.30522250706068588
aF0.008667421388934643
aF0.15682379142847355
aF0.037458202825196588
aF-0.14092181857921926
aF-0.17069068456403164
aF0.14970644989506304
aF-0.2752575961425312
aF0.28359094471774626
aF0.20607585138147697
aF-0.24478992166892741
aF-0.081555771076436148
a(I100
I1
tp10
g5
tp11
Rp12
s.