(dp0
S'y'
p1
ccvxopt.base
matrix
p2
((lp3
F-0.082103425893059981
aF-0.077658017081031816
aF-0.044154955666689109
aF-0.027978495767535284
aF-0.028653493677588893
aF0.0076713634401920257
aF0.020080899761448615
aF0.019932321303742423
aF0.035638548853098133
aF0.046383747342975547
aF0.055565245592635898
aF0.078338990521136007
aF0.080026173863524147
aF0.12401050741944375
aF0.11860999883627903
aF0.14015932722458307
aF0.16910670293333385
aF0.17713978855464221
aF0.18995845130900052
aF0.19062838398418774
aF0.20189935838561909
aF0.17764415001158707
aF0.18411166959318781
aF0.17583110060882948
aF0.13456015420480544
aF0.13304152533273264
aF0.1221260708609055
aF0.081351196920178989
aF0.073236116455466155
aF0.086269618897523839
aF0.071862897042482929
aF0.08028786841829133
aF0.081146142657454193
aF0.081671563556176829
aF0.090894683237619942
aF0.089940590418169097
aF0.10221834607855008
aF0.087124543198926277
aF0.10958163681660973
aF0.12065504923390243
a(I40
I1
tp4
S'd'
p5
tp6
Rp7
sS't'
p8
g2
((lp9
F-1.0
aF-0.94871794871794868
aF-0.89743589743589747
aF-0.84615384615384615
aF-0.79487179487179493
aF-0.74358974358974361
aF-0.69230769230769229
aF-0.64102564102564097
aF-0.58974358974358976
aF-0.53846153846153844
aF-0.48717948717948723
aF-0.4358974358974359
aF-0.38461538461538458
aF-0.33333333333333337
aF-0.28205128205128205
aF-0.23076923076923073
aF-0.17948717948717952
aF-0.12820512820512819
aF-0.076923076923076872
aF-0.025641025641025661
aF0.02564102564102555
aF0.076923076923076872
aF0.12820512820512819
aF0.17948717948717952
aF0.23076923076923084
aF0.28205128205128216
aF0.33333333333333326
aF0.38461538461538458
aF0.4358974358974359
aF0.48717948717948723
aF0.53846153846153855
aF0.58974358974358965
aF0.64102564102564097
aF0.69230769230769229
aF0.74358974358974361
aF0.79487179487179493
aF0.84615384615384626
aF0.89743589743589736
aF0.94871794871794868
aF1.0
a(I40
I1
tp10
g5
tp11
Rp12
s.