(dp0
S'X'
p1
ccvxopt.base
matrix
p2
((lp3
F1.0
aF1.0
aF-1.0
aF-1.0
aF1.0
aF-1.0
aF-0.20000000000000001
aF0.10000000000000001
aF1.0
aF-1.0
aF-1.0
aF1.0
aF-0.5
aF-0.20000000000000001
aF-1.0
aF1.0
a(I8
I2
tp4
S'd'
p5
tp6
Rp7
sS'E'
p8
(lp9
(lp10
I0
aI3
aa(lp11
I0
aI2
aa(lp12
I0
aI4
aa(lp13
I0
aI6
aa(lp14
I0
aI7
aa(lp15
I0
aI10
aa(lp16
I0
aI13
aa(lp17
I1
aI2
aa(lp18
I1
aI3
aa(lp19
I1
aI5
aa(lp20
I1
aI7
aa(lp21
I1
aI8
aa(lp22
I1
aI12
aa(lp23
I2
aI3
aa(lp24
I2
aI7
aa(lp25
I2
aI10
aa(lp26
I3
aI4
aa(lp27
I3
aI8
aa(lp28
I3
aI9
aa(lp29
I3
aI11
aa(lp30
I3
aI5
aa(lp31
I4
aI5
aa(lp32
I4
aI6
aa(lp33
I4
aI9
aa(lp34
I4
aI13
aa(lp35
I5
aI8
aa(lp36
I5
aI10
aa(lp37
I1
aI11
aas.