(dp0
S'y'
p1
ccvxopt.base
matrix
p2
((lp3
I1
aI0
aI1
aI1
aI1
aI1
aI0
aI0
aI1
aI0
aI1
aI1
aI1
aI1
aI0
aI0
aI1
aI1
aI0
aI1
aI0
aI0
aI1
aI0
aI0
aI0
aI0
aI0
aI0
aI0
aI0
aI1
aI1
aI1
aI0
aI0
aI1
aI1
aI0
aI0
aI1
aI0
aI1
aI0
aI1
aI1
aI1
aI0
aI0
aI0
aI0
aI1
aI1
aI1
aI1
aI1
aI0
aI1
aI1
aI1
aI0
aI1
aI1
aI1
aI1
aI1
aI0
aI0
aI0
aI0
aI1
aI0
aI1
aI1
aI1
aI1
aI0
aI0
aI1
aI1
aI1
aI1
aI0
aI1
aI0
aI1
aI0
aI0
aI1
aI1
aI0
aI0
aI1
aI0
aI0
aI1
aI0
aI1
aI0
aI0
a(I100
I1
tp4
S'i'
p5
tp6
Rp7
sS'u'
p8
g2
((lp9
F9.5012928514717547
aF2.3113851357428783
aF6.068425835417866
aF4.8598246870929973
aF8.9129896614890161
aF7.6209683302739473
aF4.5646766516834134
aF0.185036432482244
aF8.2140716429525327
aF4.4470336435319417
aF6.1543234810009473
aF7.9193703742703541
aF9.2181297074480248
aF7.382072458106653
aF1.7626614449461799
aF4.0570621306209551
aF9.3546969910760538
aF9.1690443991340764
aF4.1027020699094532
aF8.9364953091353367
aF0.5789130478426856
aF3.5286813221700037
aF8.1316649730375783
aF0.098613006609235609
aF1.3889088195694987
aF2.0276521856027316
aF1.9872174266148965
aF6.0379247919381926
aF2.7218792496996036
aF1.9881426776106215
aF0.15273927029036269
aF7.4678567656442931
aF4.450964322879468
aF9.3181457846166467
aF4.6599434167542402
aF4.1864946772750624
aF8.4622141782432454
aF5.2515249630517236
aF2.0264735765038728
aF6.7213746847428846
aF8.3811844505238682
aF0.19639513864817498
aF6.8127716128213534
aF3.7948101802799803
aF8.3179601760960651
aF5.028128839962509
aF7.0947139270338679
aF4.2889236534099675
aF3.0461736686939433
aF1.8965374754717499
aF1.9343115640521509
aF6.8222322359138357
aF3.02764400776609
aF5.4167385389808764
aF1.5087297614976465
aF6.9789848185986338
aF3.7837300051267109
aF8.6001160488681965
aF8.5365513066276772
aF5.9356291253968161
aF4.9655244970310282
aF8.9976917516960988
aF8.216291607353428
aF6.4491038419384434
aF8.1797434083924507
aF6.6022755644160238
aF3.4197061827021575
aF2.8972589585623814
aF3.411935694148835
aF5.3407901762660046
aF7.2711321692967692
aF3.0929015979095773
aF8.3849604493808059
aF5.6807246100777578
aF3.704135566321165
aF7.0273991324037688
aF5.4657115182910623
aF4.4488020467291216
aF6.9456724042554754
aF6.2131013079541342
aF7.9482108020092648
aF9.5684344844487708
aF5.2259034908070774
aF8.8014220741132725
aF1.729561412752366
aF9.7974689678884097
aF2.7144725864179984
aF2.5232934687399036
aF8.7574189981807429
aF7.373059884652557
aF1.3651874225970972
aF0.11756687353117969
aF8.9389796644525337
aF1.991380672057383
aF2.9872301210221446
aF6.6144257638232498
aF2.8440858974994461
aF4.6922428521100104
aF0.64781122963272486
aF9.8833493827763075
a(I100
I1
tp10
S'd'
p11
tp12
Rp13
s.